
kernel:     file format elf32-i386


Disassembly of section .text:

00100000 <main>:

/**
 * Bootstrap processor starts running C code here.
 */
int main(void)
{
  100000:	55                   	push   %ebp
	 *	_end(end)		bss段结束后第一个地址
	 */
	extern char edata[], end[];

  	// clear BSS
  	memset(edata, 0, end - edata);
  100001:	b8 84 29 11 00       	mov    $0x112984,%eax

/**
 * Bootstrap processor starts running C code here.
 */
int main(void)
{
  100006:	89 e5                	mov    %esp,%ebp
	 *	_end(end)		bss段结束后第一个地址
	 */
	extern char edata[], end[];

  	// clear BSS
  	memset(edata, 0, end - edata);
  100008:	2d a6 87 10 00       	sub    $0x1087a6,%eax

/**
 * Bootstrap processor starts running C code here.
 */
int main(void)
{
  10000d:	53                   	push   %ebx
  10000e:	83 e4 f0             	and    $0xfffffff0,%esp
  100011:	83 ec 10             	sub    $0x10,%esp
	 *	_end(end)		bss段结束后第一个地址
	 */
	extern char edata[], end[];

  	// clear BSS
  	memset(edata, 0, end - edata);
  100014:	89 44 24 08          	mov    %eax,0x8(%esp)
  100018:	c7 44 24 04 00 00 00 	movl   $0x0,0x4(%esp)
  10001f:	00 
  100020:	c7 04 24 a6 87 10 00 	movl   $0x1087a6,(%esp)
  100027:	e8 e4 0d 00 00       	call   100e10 <memset>

  	// collect info about this machine
  	mp_init();
  10002c:	e8 5f 1f 00 00       	call   101f90 <mp_init>
  	lapic_init(mp_bcpu());
  100031:	e8 3a 1f 00 00       	call   101f70 <mp_bcpu>
  100036:	89 04 24             	mov    %eax,(%esp)
  100039:	e8 02 0b 00 00       	call   100b40 <lapic_init>

  	cprintf("\ncpu%d: starting myos\n\n", cpu());
  10003e:	e8 ed 0b 00 00       	call   100c30 <cpu>
  100043:	c7 04 24 86 66 10 00 	movl   $0x106686,(%esp)
  10004a:	89 44 24 04          	mov    %eax,0x4(%esp)
  10004e:	e8 cd 06 00 00       	call   100720 <cprintf>
	cprintf("Welcome to myos !\n");
  100053:	c7 04 24 9e 66 10 00 	movl   $0x10669e,(%esp)
  10005a:	e8 c1 06 00 00       	call   100720 <cprintf>

	pinit();         // process table
  10005f:	e8 bc 0f 00 00       	call   101020 <pinit>
	binit();         // buffer cache
  100064:	e8 07 33 00 00       	call   103370 <binit>
	pic_init();      // interrupt controller
  100069:	e8 b2 37 00 00       	call   103820 <pic_init>
  10006e:	66 90                	xchg   %ax,%ax
	ioapic_init();   // another interrupt controller
  100070:	e8 9b 1b 00 00       	call   101c10 <ioapic_init>

	kinit();         // physical memory allocator
  100075:	e8 76 1d 00 00       	call   101df0 <kinit>
	tvinit();        // trap vectors
  10007a:	e8 81 50 00 00       	call   105100 <tvinit>
  10007f:	90                   	nop
	fileinit();      // file table
  100080:	e8 fb 20 00 00       	call   102180 <fileinit>
	iinit();         // inode cache
  100085:	e8 36 28 00 00       	call   1028c0 <iinit>
	console_init();  // I/O devices & their interrupts
  10008a:	e8 b1 09 00 00       	call   100a40 <console_init>
  10008f:	90                   	nop
	ide_init();      // disk
  100090:	e8 7b 35 00 00       	call   103610 <ide_init>
	if(!ismp)
  100095:	a1 c0 d5 10 00       	mov    0x10d5c0,%eax
  10009a:	85 c0                	test   %eax,%eax
  10009c:	0f 84 d2 00 00 00    	je     100174 <main+0x174>
			timer_init();  // uniprocessor timer
	userinit();      // first user process
  1000a2:	e8 09 13 00 00       	call   1013b0 <userinit>
	struct cpu *c;
	char *stack;

	// Write bootstrap code to unused memory at 0x7000.
	code = (uchar*)0x7000;
	memmove(code, _binary____boot_x86_bootother_start, (uint)_binary____boot_x86_bootother_size);
  1000a7:	c7 44 24 08 5a 00 00 	movl   $0x5a,0x8(%esp)
  1000ae:	00 
  1000af:	c7 44 24 04 4c 87 10 	movl   $0x10874c,0x4(%esp)
  1000b6:	00 
  1000b7:	c7 04 24 00 70 00 00 	movl   $0x7000,(%esp)
  1000be:	e8 dd 0d 00 00       	call   100ea0 <memmove>

	for(c = cpus; c < cpus+ncpu; c++)
  1000c3:	69 05 40 dc 10 00 cc 	imul   $0xcc,0x10dc40,%eax
  1000ca:	00 00 00 
  1000cd:	05 e0 d5 10 00       	add    $0x10d5e0,%eax
  1000d2:	3d e0 d5 10 00       	cmp    $0x10d5e0,%eax
  1000d7:	0f 86 92 00 00 00    	jbe    10016f <main+0x16f>
  1000dd:	bb e0 d5 10 00       	mov    $0x10d5e0,%ebx
  1000e2:	8d b6 00 00 00 00    	lea    0x0(%esi),%esi
	{
		if(c == cpus+cpu())  // We've started already.
  1000e8:	e8 43 0b 00 00       	call   100c30 <cpu>
  1000ed:	69 c0 cc 00 00 00    	imul   $0xcc,%eax,%eax
  1000f3:	05 e0 d5 10 00       	add    $0x10d5e0,%eax
  1000f8:	39 c3                	cmp    %eax,%ebx
  1000fa:	74 56                	je     100152 <main+0x152>
			continue;
		cprintf("Try to start cup:%d\n", c->apicid);
  1000fc:	0f b6 03             	movzbl (%ebx),%eax
  1000ff:	c7 04 24 b1 66 10 00 	movl   $0x1066b1,(%esp)
  100106:	89 44 24 04          	mov    %eax,0x4(%esp)
  10010a:	e8 11 06 00 00       	call   100720 <cprintf>
		// Fill in %esp, %eip and start code on cpu.
		stack = kalloc(KSTACKSIZE);
  10010f:	c7 04 24 00 10 00 00 	movl   $0x1000,(%esp)
  100116:	e8 25 1d 00 00       	call   101e40 <kalloc>
		*(void**)(code-4) = stack + KSTACKSIZE;
		*(void**)(code-8) = mpmain;
  10011b:	c7 05 f8 6f 00 00 e0 	movl   $0x105ee0,0x6ff8
  100122:	5e 10 00 
		if(c == cpus+cpu())  // We've started already.
			continue;
		cprintf("Try to start cup:%d\n", c->apicid);
		// Fill in %esp, %eip and start code on cpu.
		stack = kalloc(KSTACKSIZE);
		*(void**)(code-4) = stack + KSTACKSIZE;
  100125:	05 00 10 00 00       	add    $0x1000,%eax
  10012a:	a3 fc 6f 00 00       	mov    %eax,0x6ffc
		*(void**)(code-8) = mpmain;
		lapic_startap(c->apicid, (uint)code);
  10012f:	0f b6 03             	movzbl (%ebx),%eax
  100132:	c7 44 24 04 00 70 00 	movl   $0x7000,0x4(%esp)
  100139:	00 
  10013a:	89 04 24             	mov    %eax,(%esp)
  10013d:	e8 5e 0b 00 00       	call   100ca0 <lapic_startap>
  100142:	8d b6 00 00 00 00    	lea    0x0(%esi),%esi

		// Wait for cpu to get through bootstrap.
		while(c->booted == 0)
  100148:	8b 83 c0 00 00 00    	mov    0xc0(%ebx),%eax
  10014e:	85 c0                	test   %eax,%eax
  100150:	74 f6                	je     100148 <main+0x148>

	// Write bootstrap code to unused memory at 0x7000.
	code = (uchar*)0x7000;
	memmove(code, _binary____boot_x86_bootother_start, (uint)_binary____boot_x86_bootother_size);

	for(c = cpus; c < cpus+ncpu; c++)
  100152:	69 05 40 dc 10 00 cc 	imul   $0xcc,0x10dc40,%eax
  100159:	00 00 00 
  10015c:	81 c3 cc 00 00 00    	add    $0xcc,%ebx
  100162:	05 e0 d5 10 00       	add    $0x10d5e0,%eax
  100167:	39 c3                	cmp    %eax,%ebx
  100169:	0f 82 79 ff ff ff    	jb     1000e8 <main+0xe8>
			timer_init();  // uniprocessor timer
	userinit();      // first user process
	bootothers();    // start other processors

	// Finish setting up this processor in mpmain.
	mpmain();
  10016f:	e8 6c 5d 00 00       	call   105ee0 <mpmain>
	fileinit();      // file table
	iinit();         // inode cache
	console_init();  // I/O devices & their interrupts
	ide_init();      // disk
	if(!ismp)
			timer_init();  // uniprocessor timer
  100174:	e8 57 4a 00 00       	call   104bd0 <timer_init>
  100179:	e9 24 ff ff ff       	jmp    1000a2 <main+0xa2>
  10017e:	90                   	nop
  10017f:	90                   	nop

00100180 <initlock>:

extern int use_console_lock;

void
initlock(struct spinlock *lock, char *name)
{
  100180:	8b 44 24 04          	mov    0x4(%esp),%eax
  lock->name = name;
  100184:	8b 54 24 08          	mov    0x8(%esp),%edx
  lock->locked = 0;
  100188:	c7 00 00 00 00 00    	movl   $0x0,(%eax)
extern int use_console_lock;

void
initlock(struct spinlock *lock, char *name)
{
  lock->name = name;
  10018e:	89 50 04             	mov    %edx,0x4(%eax)
  lock->locked = 0;
  lock->cpu = 0xffffffff;
  100191:	c7 40 08 ff ff ff ff 	movl   $0xffffffff,0x8(%eax)
}
  100198:	c3                   	ret    
  100199:	8d b4 26 00 00 00 00 	lea    0x0(%esi,%eiz,1),%esi

001001a0 <getcallerpcs>:
}

// Record the current call stack in pcs[] by following the %ebp chain.
void
getcallerpcs(void *v, uint pcs[])
{
  1001a0:	53                   	push   %ebx
  uint *ebp;
  int i;

  ebp = (uint*)v - 2;
  1001a1:	8b 54 24 08          	mov    0x8(%esp),%edx
  for(i = 0; i < 10; i++){
  1001a5:	31 c0                	xor    %eax,%eax
}

// Record the current call stack in pcs[] by following the %ebp chain.
void
getcallerpcs(void *v, uint pcs[])
{
  1001a7:	8b 4c 24 0c          	mov    0xc(%esp),%ecx
  uint *ebp;
  int i;

  ebp = (uint*)v - 2;
  1001ab:	83 ea 08             	sub    $0x8,%edx
  1001ae:	66 90                	xchg   %ax,%ax
  for(i = 0; i < 10; i++){
    if(ebp == 0 || ebp == (uint*)0xffffffff)
  1001b0:	8d 5a ff             	lea    -0x1(%edx),%ebx
  1001b3:	83 fb fd             	cmp    $0xfffffffd,%ebx
  1001b6:	77 18                	ja     1001d0 <getcallerpcs+0x30>
      break;
    pcs[i] = ebp[1];     // saved %eip
  1001b8:	8b 5a 04             	mov    0x4(%edx),%ebx
  1001bb:	89 1c 81             	mov    %ebx,(%ecx,%eax,4)
{
  uint *ebp;
  int i;

  ebp = (uint*)v - 2;
  for(i = 0; i < 10; i++){
  1001be:	83 c0 01             	add    $0x1,%eax
    if(ebp == 0 || ebp == (uint*)0xffffffff)
      break;
    pcs[i] = ebp[1];     // saved %eip
    ebp = (uint*)ebp[0]; // saved %ebp
  1001c1:	8b 12                	mov    (%edx),%edx
{
  uint *ebp;
  int i;

  ebp = (uint*)v - 2;
  for(i = 0; i < 10; i++){
  1001c3:	83 f8 0a             	cmp    $0xa,%eax
  1001c6:	75 e8                	jne    1001b0 <getcallerpcs+0x10>
    pcs[i] = ebp[1];     // saved %eip
    ebp = (uint*)ebp[0]; // saved %ebp
  }
  for(; i < 10; i++)
    pcs[i] = 0;
}
  1001c8:	5b                   	pop    %ebx
  1001c9:	c3                   	ret    
  1001ca:	8d b6 00 00 00 00    	lea    0x0(%esi),%esi
      break;
    pcs[i] = ebp[1];     // saved %eip
    ebp = (uint*)ebp[0]; // saved %ebp
  }
  for(; i < 10; i++)
    pcs[i] = 0;
  1001d0:	c7 04 81 00 00 00 00 	movl   $0x0,(%ecx,%eax,4)
    if(ebp == 0 || ebp == (uint*)0xffffffff)
      break;
    pcs[i] = ebp[1];     // saved %eip
    ebp = (uint*)ebp[0]; // saved %ebp
  }
  for(; i < 10; i++)
  1001d7:	83 c0 01             	add    $0x1,%eax
  1001da:	83 f8 0a             	cmp    $0xa,%eax
  1001dd:	74 e9                	je     1001c8 <getcallerpcs+0x28>
    pcs[i] = 0;
  1001df:	c7 04 81 00 00 00 00 	movl   $0x0,(%ecx,%eax,4)
    if(ebp == 0 || ebp == (uint*)0xffffffff)
      break;
    pcs[i] = ebp[1];     // saved %eip
    ebp = (uint*)ebp[0]; // saved %ebp
  }
  for(; i < 10; i++)
  1001e6:	83 c0 01             	add    $0x1,%eax
  1001e9:	83 f8 0a             	cmp    $0xa,%eax
  1001ec:	75 e2                	jne    1001d0 <getcallerpcs+0x30>
  1001ee:	eb d8                	jmp    1001c8 <getcallerpcs+0x28>

001001f0 <holding>:
}

// Check whether this cpu is holding the lock.
int
holding(struct spinlock *lock)
{
  1001f0:	53                   	push   %ebx
  return lock->locked && lock->cpu == cpu() + 10;
  1001f1:	31 c0                	xor    %eax,%eax
}

// Check whether this cpu is holding the lock.
int
holding(struct spinlock *lock)
{
  1001f3:	83 ec 08             	sub    $0x8,%esp
  1001f6:	8b 54 24 10          	mov    0x10(%esp),%edx
  return lock->locked && lock->cpu == cpu() + 10;
  1001fa:	8b 0a                	mov    (%edx),%ecx
  1001fc:	85 c9                	test   %ecx,%ecx
  1001fe:	75 08                	jne    100208 <holding+0x18>
}
  100200:	83 c4 08             	add    $0x8,%esp
  100203:	5b                   	pop    %ebx
  100204:	c3                   	ret    
  100205:	8d 76 00             	lea    0x0(%esi),%esi

// Check whether this cpu is holding the lock.
int
holding(struct spinlock *lock)
{
  return lock->locked && lock->cpu == cpu() + 10;
  100208:	8b 5a 08             	mov    0x8(%edx),%ebx
  10020b:	e8 20 0a 00 00       	call   100c30 <cpu>
  100210:	83 c0 0a             	add    $0xa,%eax
    pcs[i] = 0;
}

// Check whether this cpu is holding the lock.
int
holding(struct spinlock *lock)
  100213:	39 c3                	cmp    %eax,%ebx
{
  return lock->locked && lock->cpu == cpu() + 10;
  100215:	0f 94 c0             	sete   %al
}
  100218:	83 c4 08             	add    $0x8,%esp

// Check whether this cpu is holding the lock.
int
holding(struct spinlock *lock)
{
  return lock->locked && lock->cpu == cpu() + 10;
  10021b:	0f b6 c0             	movzbl %al,%eax
}
  10021e:	5b                   	pop    %ebx
  10021f:	c3                   	ret    

00100220 <pushcli>:
// it takes two popcli to undo two pushcli.  Also, if interrupts
// are off, then pushcli, popcli leaves them off.

void
pushcli(void)
{
  100220:	53                   	push   %ebx
  100221:	83 ec 08             	sub    $0x8,%esp

static inline uint
read_eflags(void)
{
  uint eflags;
  asm volatile("pushfl; popl %0" : "=r" (eflags));
  100224:	9c                   	pushf  
  100225:	5b                   	pop    %ebx
}

static inline void
cli(void)
{
  asm volatile("cli");
  100226:	fa                   	cli    
  int eflags;

  eflags = read_eflags();
  cli();
  if(cpus[cpu()].ncli++ == 0)
  100227:	e8 04 0a 00 00       	call   100c30 <cpu>
  10022c:	69 c0 cc 00 00 00    	imul   $0xcc,%eax,%eax
  100232:	8b 90 a4 d6 10 00    	mov    0x10d6a4(%eax),%edx
  100238:	8d 4a 01             	lea    0x1(%edx),%ecx
  10023b:	85 d2                	test   %edx,%edx
  10023d:	89 88 a4 d6 10 00    	mov    %ecx,0x10d6a4(%eax)
  100243:	75 17                	jne    10025c <pushcli+0x3c>
    cpus[cpu()].intena = eflags & FL_IF;
  100245:	e8 e6 09 00 00       	call   100c30 <cpu>
  10024a:	81 e3 00 02 00 00    	and    $0x200,%ebx
  100250:	69 c0 cc 00 00 00    	imul   $0xcc,%eax,%eax
  100256:	89 98 a8 d6 10 00    	mov    %ebx,0x10d6a8(%eax)
}
  10025c:	83 c4 08             	add    $0x8,%esp
  10025f:	5b                   	pop    %ebx
  100260:	c3                   	ret    
  100261:	eb 0d                	jmp    100270 <acquire>
  100263:	90                   	nop
  100264:	90                   	nop
  100265:	90                   	nop
  100266:	90                   	nop
  100267:	90                   	nop
  100268:	90                   	nop
  100269:	90                   	nop
  10026a:	90                   	nop
  10026b:	90                   	nop
  10026c:	90                   	nop
  10026d:	90                   	nop
  10026e:	90                   	nop
  10026f:	90                   	nop

00100270 <acquire>:
// Loops (spins) until the lock is acquired.
// Holding a lock for a long time may cause
// other CPUs to waste time spinning to acquire it.
void
acquire(struct spinlock *lock)
{
  100270:	53                   	push   %ebx
  100271:	83 ec 18             	sub    $0x18,%esp
  pushcli();
  100274:	e8 a7 ff ff ff       	call   100220 <pushcli>
  if(holding(lock))
  100279:	8b 44 24 20          	mov    0x20(%esp),%eax
  10027d:	89 04 24             	mov    %eax,(%esp)
  100280:	e8 6b ff ff ff       	call   1001f0 <holding>
  100285:	85 c0                	test   %eax,%eax
  100287:	75 40                	jne    1002c9 <acquire+0x59>
  100289:	8b 5c 24 20          	mov    0x20(%esp),%ebx
xchg(volatile uint *addr, uint newval)
{
  uint result;

  // The + in "+m" denotes a read-modify-write operand.
  asm volatile("lock; xchgl %0, %1" :
  10028d:	ba 01 00 00 00       	mov    $0x1,%edx
  100292:	8d b6 00 00 00 00    	lea    0x0(%esi),%esi
  100298:	89 d0                	mov    %edx,%eax
  10029a:	f0 87 03             	lock xchg %eax,(%ebx)
    panic("acquire");

  // The xchg is atomic.
  // It also serializes, so that reads after acquire are not
  // reordered before it.
  while(xchg(&lock->locked, 1) == 1)
  10029d:	83 f8 01             	cmp    $0x1,%eax
  1002a0:	74 f6                	je     100298 <acquire+0x28>

  // Record info about lock acquisition for debugging.
  // The +10 is only so that we can tell the difference
  // between forgetting to initialize lock->cpu
  // and holding a lock on cpu 0.
  lock->cpu = cpu() + 10;
  1002a2:	e8 89 09 00 00       	call   100c30 <cpu>
  1002a7:	83 c0 0a             	add    $0xa,%eax
  1002aa:	89 43 08             	mov    %eax,0x8(%ebx)
  getcallerpcs(&lock, lock->pcs);
  1002ad:	8b 44 24 20          	mov    0x20(%esp),%eax
  1002b1:	83 c0 0c             	add    $0xc,%eax
  1002b4:	89 44 24 04          	mov    %eax,0x4(%esp)
  1002b8:	8d 44 24 20          	lea    0x20(%esp),%eax
  1002bc:	89 04 24             	mov    %eax,(%esp)
  1002bf:	e8 dc fe ff ff       	call   1001a0 <getcallerpcs>
}
  1002c4:	83 c4 18             	add    $0x18,%esp
  1002c7:	5b                   	pop    %ebx
  1002c8:	c3                   	ret    
void
acquire(struct spinlock *lock)
{
  pushcli();
  if(holding(lock))
    panic("acquire");
  1002c9:	c7 04 24 60 5f 10 00 	movl   $0x105f60,(%esp)
  1002d0:	e8 db 07 00 00       	call   100ab0 <panic>
  1002d5:	8d 74 26 00          	lea    0x0(%esi,%eiz,1),%esi
  1002d9:	8d bc 27 00 00 00 00 	lea    0x0(%edi,%eiz,1),%edi

001002e0 <popcli>:
    cpus[cpu()].intena = eflags & FL_IF;
}

void
popcli(void)
{
  1002e0:	83 ec 1c             	sub    $0x1c,%esp

static inline uint
read_eflags(void)
{
  uint eflags;
  asm volatile("pushfl; popl %0" : "=r" (eflags));
  1002e3:	9c                   	pushf  
  1002e4:	58                   	pop    %eax
  if(read_eflags()&FL_IF)
  1002e5:	f6 c4 02             	test   $0x2,%ah
  1002e8:	75 64                	jne    10034e <popcli+0x6e>
    panic("popcli - interruptible");
  if(--cpus[cpu()].ncli < 0)
  1002ea:	e8 41 09 00 00       	call   100c30 <cpu>
  1002ef:	69 c0 cc 00 00 00    	imul   $0xcc,%eax,%eax
  1002f5:	8b 90 a4 d6 10 00    	mov    0x10d6a4(%eax),%edx
  1002fb:	83 ea 01             	sub    $0x1,%edx
  1002fe:	85 d2                	test   %edx,%edx
  100300:	89 90 a4 d6 10 00    	mov    %edx,0x10d6a4(%eax)
  100306:	78 3a                	js     100342 <popcli+0x62>
    panic("popcli");
  if(cpus[cpu()].ncli == 0 && cpus[cpu()].intena)
  100308:	e8 23 09 00 00       	call   100c30 <cpu>
  10030d:	69 c0 cc 00 00 00    	imul   $0xcc,%eax,%eax
  100313:	8b 80 a4 d6 10 00    	mov    0x10d6a4(%eax),%eax
  100319:	85 c0                	test   %eax,%eax
  10031b:	74 0b                	je     100328 <popcli+0x48>
    sti();
}
  10031d:	83 c4 1c             	add    $0x1c,%esp
  100320:	c3                   	ret    
  100321:	8d b4 26 00 00 00 00 	lea    0x0(%esi,%eiz,1),%esi
{
  if(read_eflags()&FL_IF)
    panic("popcli - interruptible");
  if(--cpus[cpu()].ncli < 0)
    panic("popcli");
  if(cpus[cpu()].ncli == 0 && cpus[cpu()].intena)
  100328:	e8 03 09 00 00       	call   100c30 <cpu>
  10032d:	69 c0 cc 00 00 00    	imul   $0xcc,%eax,%eax
  100333:	8b 80 a8 d6 10 00    	mov    0x10d6a8(%eax),%eax
  100339:	85 c0                	test   %eax,%eax
  10033b:	74 e0                	je     10031d <popcli+0x3d>
}

static inline void
sti(void)
{
  asm volatile("sti");
  10033d:	fb                   	sti    
    sti();
}
  10033e:	83 c4 1c             	add    $0x1c,%esp
  100341:	c3                   	ret    
popcli(void)
{
  if(read_eflags()&FL_IF)
    panic("popcli - interruptible");
  if(--cpus[cpu()].ncli < 0)
    panic("popcli");
  100342:	c7 04 24 7f 5f 10 00 	movl   $0x105f7f,(%esp)
  100349:	e8 62 07 00 00       	call   100ab0 <panic>

void
popcli(void)
{
  if(read_eflags()&FL_IF)
    panic("popcli - interruptible");
  10034e:	c7 04 24 68 5f 10 00 	movl   $0x105f68,(%esp)
  100355:	e8 56 07 00 00       	call   100ab0 <panic>
  10035a:	8d b6 00 00 00 00    	lea    0x0(%esi),%esi

00100360 <release>:
}

// Release the lock.
void
release(struct spinlock *lock)
{
  100360:	53                   	push   %ebx
  100361:	83 ec 18             	sub    $0x18,%esp
  100364:	8b 5c 24 20          	mov    0x20(%esp),%ebx
  if(!holding(lock))
  100368:	89 1c 24             	mov    %ebx,(%esp)
  10036b:	e8 80 fe ff ff       	call   1001f0 <holding>
  100370:	85 c0                	test   %eax,%eax
  100372:	74 1c                	je     100390 <release+0x30>
    panic("release");

  lock->pcs[0] = 0;
  100374:	c7 43 0c 00 00 00 00 	movl   $0x0,0xc(%ebx)
xchg(volatile uint *addr, uint newval)
{
  uint result;

  // The + in "+m" denotes a read-modify-write operand.
  asm volatile("lock; xchgl %0, %1" :
  10037b:	31 c0                	xor    %eax,%eax
  lock->cpu = 0xffffffff;
  10037d:	c7 43 08 ff ff ff ff 	movl   $0xffffffff,0x8(%ebx)
  100384:	f0 87 03             	lock xchg %eax,(%ebx)
  // Intel processors.  The xchg being asm volatile also keeps
  // gcc from delaying the above assignments.)
  xchg(&lock->locked, 0);

  popcli();
}
  100387:	83 c4 18             	add    $0x18,%esp
  10038a:	5b                   	pop    %ebx
  // by the Intel manuals, but does not happen on current
  // Intel processors.  The xchg being asm volatile also keeps
  // gcc from delaying the above assignments.)
  xchg(&lock->locked, 0);

  popcli();
  10038b:	e9 50 ff ff ff       	jmp    1002e0 <popcli>
// Release the lock.
void
release(struct spinlock *lock)
{
  if(!holding(lock))
    panic("release");
  100390:	c7 04 24 86 5f 10 00 	movl   $0x105f86,(%esp)
  100397:	e8 14 07 00 00       	call   100ab0 <panic>
  10039c:	90                   	nop
  10039d:	90                   	nop
  10039e:	90                   	nop
  10039f:	90                   	nop

001003a0 <console_read>:
  release(&input.lock);
}

int
console_read(struct inode *ip, char *dst, int n)
{
  1003a0:	55                   	push   %ebp
  1003a1:	57                   	push   %edi
  1003a2:	56                   	push   %esi
  1003a3:	53                   	push   %ebx
  1003a4:	83 ec 2c             	sub    $0x2c,%esp
  1003a7:	8b 7c 24 40          	mov    0x40(%esp),%edi
  1003ab:	8b 5c 24 48          	mov    0x48(%esp),%ebx
  1003af:	8b 74 24 44          	mov    0x44(%esp),%esi
  uint target;
  int c;

  iunlock(ip);
  1003b3:	89 3c 24             	mov    %edi,(%esp)
  1003b6:	e8 55 26 00 00       	call   102a10 <iunlock>
  target = n;
  acquire(&input.lock);
  1003bb:	c7 04 24 60 88 10 00 	movl   $0x108860,(%esp)
{
  uint target;
  int c;

  iunlock(ip);
  target = n;
  1003c2:	89 5c 24 1c          	mov    %ebx,0x1c(%esp)
  acquire(&input.lock);
  1003c6:	e8 a5 fe ff ff       	call   100270 <acquire>
  while(n > 0){
  1003cb:	31 c0                	xor    %eax,%eax
  1003cd:	85 db                	test   %ebx,%ebx
  1003cf:	7f 2b                	jg     1003fc <console_read+0x5c>
  1003d1:	eb 73                	jmp    100446 <console_read+0xa6>
  1003d3:	90                   	nop
  1003d4:	8d 74 26 00          	lea    0x0(%esi,%eiz,1),%esi
    while(input.r == input.w){
      if(cp->killed){
  1003d8:	e8 b3 10 00 00       	call   101490 <curproc>
  1003dd:	8b 40 1c             	mov    0x1c(%eax),%eax
  1003e0:	85 c0                	test   %eax,%eax
  1003e2:	0f 85 88 00 00 00    	jne    100470 <console_read+0xd0>
        release(&input.lock);
        ilock(ip);
        return -1;
      }
      sleep(&input.r, &input.lock);
  1003e8:	c7 44 24 04 60 88 10 	movl   $0x108860,0x4(%esp)
  1003ef:	00 
  1003f0:	c7 04 24 14 89 10 00 	movl   $0x108914,(%esp)
  1003f7:	e8 34 13 00 00       	call   101730 <sleep>

  iunlock(ip);
  target = n;
  acquire(&input.lock);
  while(n > 0){
    while(input.r == input.w){
  1003fc:	a1 14 89 10 00       	mov    0x108914,%eax
  100401:	3b 05 18 89 10 00    	cmp    0x108918,%eax
  100407:	74 cf                	je     1003d8 <console_read+0x38>
        ilock(ip);
        return -1;
      }
      sleep(&input.r, &input.lock);
    }
    c = input.buf[input.r++ % INPUT_BUF];
  100409:	89 c1                	mov    %eax,%ecx
  10040b:	c1 f9 1f             	sar    $0x1f,%ecx
  10040e:	c1 e9 19             	shr    $0x19,%ecx
  100411:	8d 14 08             	lea    (%eax,%ecx,1),%edx
  100414:	83 e2 7f             	and    $0x7f,%edx
  100417:	29 ca                	sub    %ecx,%edx
  100419:	0f b6 8a 94 88 10 00 	movzbl 0x108894(%edx),%ecx
  100420:	8d 68 01             	lea    0x1(%eax),%ebp
  100423:	89 2d 14 89 10 00    	mov    %ebp,0x108914
  100429:	0f be d1             	movsbl %cl,%edx
    if(c == C('D')){  // EOF
  10042c:	83 fa 04             	cmp    $0x4,%edx
  10042f:	74 60                	je     100491 <console_read+0xf1>
        // caller gets a 0-byte result.
        input.r--;
      }
      break;
    }
    *dst++ = c;
  100431:	88 0e                	mov    %cl,(%esi)
    --n;
  100433:	83 eb 01             	sub    $0x1,%ebx
        // caller gets a 0-byte result.
        input.r--;
      }
      break;
    }
    *dst++ = c;
  100436:	83 c6 01             	add    $0x1,%esi
    --n;
    if(c == '\n')
  100439:	83 fa 0a             	cmp    $0xa,%edx
  10043c:	74 5e                	je     10049c <console_read+0xfc>
  int c;

  iunlock(ip);
  target = n;
  acquire(&input.lock);
  while(n > 0){
  10043e:	85 db                	test   %ebx,%ebx
  100440:	75 ba                	jne    1003fc <console_read+0x5c>
  100442:	8b 44 24 1c          	mov    0x1c(%esp),%eax
    *dst++ = c;
    --n;
    if(c == '\n')
      break;
  }
  release(&input.lock);
  100446:	c7 04 24 60 88 10 00 	movl   $0x108860,(%esp)
  10044d:	89 44 24 18          	mov    %eax,0x18(%esp)
  100451:	e8 0a ff ff ff       	call   100360 <release>
  ilock(ip);
  100456:	89 3c 24             	mov    %edi,(%esp)
  100459:	e8 b2 24 00 00       	call   102910 <ilock>
  10045e:	8b 44 24 18          	mov    0x18(%esp),%eax

  return target - n;
}
  100462:	83 c4 2c             	add    $0x2c,%esp
  100465:	5b                   	pop    %ebx
  100466:	5e                   	pop    %esi
  100467:	5f                   	pop    %edi
  100468:	5d                   	pop    %ebp
  100469:	c3                   	ret    
  10046a:	8d b6 00 00 00 00    	lea    0x0(%esi),%esi
  target = n;
  acquire(&input.lock);
  while(n > 0){
    while(input.r == input.w){
      if(cp->killed){
        release(&input.lock);
  100470:	c7 04 24 60 88 10 00 	movl   $0x108860,(%esp)
  100477:	e8 e4 fe ff ff       	call   100360 <release>
        ilock(ip);
  10047c:	89 3c 24             	mov    %edi,(%esp)
  10047f:	e8 8c 24 00 00       	call   102910 <ilock>
  }
  release(&input.lock);
  ilock(ip);

  return target - n;
}
  100484:	83 c4 2c             	add    $0x2c,%esp
  while(n > 0){
    while(input.r == input.w){
      if(cp->killed){
        release(&input.lock);
        ilock(ip);
        return -1;
  100487:	b8 ff ff ff ff       	mov    $0xffffffff,%eax
  }
  release(&input.lock);
  ilock(ip);

  return target - n;
}
  10048c:	5b                   	pop    %ebx
  10048d:	5e                   	pop    %esi
  10048e:	5f                   	pop    %edi
  10048f:	5d                   	pop    %ebp
  100490:	c3                   	ret    
      }
      sleep(&input.r, &input.lock);
    }
    c = input.buf[input.r++ % INPUT_BUF];
    if(c == C('D')){  // EOF
      if(n < target){
  100491:	39 5c 24 1c          	cmp    %ebx,0x1c(%esp)
  100495:	76 05                	jbe    10049c <console_read+0xfc>
        // Save ^D for next time, to make sure
        // caller gets a 0-byte result.
        input.r--;
  100497:	a3 14 89 10 00       	mov    %eax,0x108914
  10049c:	8b 44 24 1c          	mov    0x1c(%esp),%eax
  1004a0:	29 d8                	sub    %ebx,%eax
  1004a2:	eb a2                	jmp    100446 <console_read+0xa6>
  1004a4:	8d b6 00 00 00 00    	lea    0x0(%esi),%esi
  1004aa:	8d bf 00 00 00 00    	lea    0x0(%edi),%edi

001004b0 <cons_putc>:
  crt[pos] = ' ' | 0x0700;
}

void
cons_putc(int c)
{
  1004b0:	57                   	push   %edi
  1004b1:	56                   	push   %esi
  1004b2:	53                   	push   %ebx
  1004b3:	83 ec 10             	sub    $0x10,%esp
  if(panicked){
  1004b6:	8b 15 c4 87 10 00    	mov    0x1087c4,%edx
  crt[pos] = ' ' | 0x0700;
}

void
cons_putc(int c)
{
  1004bc:	8b 4c 24 20          	mov    0x20(%esp),%ecx
  if(panicked){
  1004c0:	85 d2                	test   %edx,%edx
  1004c2:	0f 85 d8 00 00 00    	jne    1005a0 <cons_putc+0xf0>
static inline uchar
inb(ushort port)
{
  uchar data;

  asm volatile("in %1,%0" : "=a" (data) : "d" (port));
  1004c8:	b8 79 03 00 00       	mov    $0x379,%eax
  1004cd:	89 c2                	mov    %eax,%edx
  1004cf:	ec                   	in     (%dx),%al
static void
lpt_putc(int c)
{
  int i;

  for(i = 0; !(inb(LPTPORT+1) & 0x80) && i < 12800; i++)
  1004d0:	84 c0                	test   %al,%al
  1004d2:	bb 00 32 00 00       	mov    $0x3200,%ebx
  1004d7:	79 0c                	jns    1004e5 <cons_putc+0x35>
  1004d9:	eb 0f                	jmp    1004ea <cons_putc+0x3a>
  1004db:	90                   	nop
  1004dc:	8d 74 26 00          	lea    0x0(%esi,%eiz,1),%esi
  1004e0:	83 eb 01             	sub    $0x1,%ebx
  1004e3:	74 05                	je     1004ea <cons_putc+0x3a>
  1004e5:	ec                   	in     (%dx),%al
  1004e6:	84 c0                	test   %al,%al
  1004e8:	79 f6                	jns    1004e0 <cons_putc+0x30>
    ;
  if(c == BACKSPACE)
  1004ea:	bb 08 00 00 00       	mov    $0x8,%ebx
  1004ef:	81 f9 00 01 00 00    	cmp    $0x100,%ecx
  1004f5:	89 d8                	mov    %ebx,%eax


static inline void
outb(ushort port, uchar data)
{
  asm volatile("out %0,%1" : : "a" (data), "d" (port));
  1004f7:	ba 78 03 00 00       	mov    $0x378,%edx
  1004fc:	0f 45 c1             	cmovne %ecx,%eax
  1004ff:	ee                   	out    %al,(%dx)
  100500:	b8 0d 00 00 00       	mov    $0xd,%eax
  100505:	b2 7a                	mov    $0x7a,%dl
  100507:	ee                   	out    %al,(%dx)
  100508:	89 d8                	mov    %ebx,%eax
  10050a:	ee                   	out    %al,(%dx)
  10050b:	be d4 03 00 00       	mov    $0x3d4,%esi
  100510:	b8 0e 00 00 00       	mov    $0xe,%eax
  100515:	89 f2                	mov    %esi,%edx
  100517:	ee                   	out    %al,(%dx)
static inline uchar
inb(ushort port)
{
  uchar data;

  asm volatile("in %1,%0" : "=a" (data) : "d" (port));
  100518:	bf d5 03 00 00       	mov    $0x3d5,%edi
  10051d:	89 fa                	mov    %edi,%edx
  10051f:	ec                   	in     (%dx),%al
{
  int pos;

  // Cursor position: col + 80*row.
  outb(CRTPORT, 14);
  pos = inb(CRTPORT+1) << 8;
  100520:	0f b6 d8             	movzbl %al,%ebx


static inline void
outb(ushort port, uchar data)
{
  asm volatile("out %0,%1" : : "a" (data), "d" (port));
  100523:	89 f2                	mov    %esi,%edx
  100525:	c1 e3 08             	shl    $0x8,%ebx
  100528:	b8 0f 00 00 00       	mov    $0xf,%eax
  10052d:	ee                   	out    %al,(%dx)
static inline uchar
inb(ushort port)
{
  uchar data;

  asm volatile("in %1,%0" : "=a" (data) : "d" (port));
  10052e:	89 fa                	mov    %edi,%edx
  100530:	ec                   	in     (%dx),%al
  outb(CRTPORT, 15);
  pos |= inb(CRTPORT+1);
  100531:	0f b6 c0             	movzbl %al,%eax
  100534:	09 c3                	or     %eax,%ebx

  if(c == '\n')
  100536:	83 f9 0a             	cmp    $0xa,%ecx
  100539:	74 68                	je     1005a3 <cons_putc+0xf3>
    pos += 80 - pos%80;
  else if(c == BACKSPACE){
  10053b:	81 f9 00 01 00 00    	cmp    $0x100,%ecx
  100541:	0f 84 c3 00 00 00    	je     10060a <cons_putc+0x15a>
    if(pos > 0)
      crt[--pos] = ' ' | 0x0700;
  } else
    crt[pos++] = (c&0xff) | 0x0700;  // black on white
  100547:	66 81 e1 ff 00       	and    $0xff,%cx
  10054c:	80 cd 07             	or     $0x7,%ch
  10054f:	66 89 8c 1b 00 80 0b 	mov    %cx,0xb8000(%ebx,%ebx,1)
  100556:	00 
  100557:	83 c3 01             	add    $0x1,%ebx

  if((pos/80) >= 24){  // Scroll up.
  10055a:	81 fb 7f 07 00 00    	cmp    $0x77f,%ebx
  100560:	7f 5e                	jg     1005c0 <cons_putc+0x110>
  100562:	8d b4 1b 00 80 0b 00 	lea    0xb8000(%ebx,%ebx,1),%esi


static inline void
outb(ushort port, uchar data)
{
  asm volatile("out %0,%1" : : "a" (data), "d" (port));
  100569:	b9 d4 03 00 00       	mov    $0x3d4,%ecx
  10056e:	b8 0e 00 00 00       	mov    $0xe,%eax
  100573:	89 ca                	mov    %ecx,%edx
  100575:	ee                   	out    %al,(%dx)
  100576:	bf d5 03 00 00       	mov    $0x3d5,%edi
    pos -= 80;
    memset(crt+pos, 0, sizeof(crt[0])*(24*80 - pos));
  }

  outb(CRTPORT, 14);
  outb(CRTPORT+1, pos>>8);
  10057b:	89 d8                	mov    %ebx,%eax
  10057d:	c1 f8 08             	sar    $0x8,%eax
  100580:	89 fa                	mov    %edi,%edx
  100582:	ee                   	out    %al,(%dx)
  100583:	b8 0f 00 00 00       	mov    $0xf,%eax
  100588:	89 ca                	mov    %ecx,%edx
  10058a:	ee                   	out    %al,(%dx)
  10058b:	89 d8                	mov    %ebx,%eax
  10058d:	89 fa                	mov    %edi,%edx
  10058f:	ee                   	out    %al,(%dx)
  outb(CRTPORT, 15);
  outb(CRTPORT+1, pos);
  crt[pos] = ' ' | 0x0700;
  100590:	66 c7 06 20 07       	movw   $0x720,(%esi)
      ;
  }

  lpt_putc(c);
  cga_putc(c);
}
  100595:	83 c4 10             	add    $0x10,%esp
  100598:	5b                   	pop    %ebx
  100599:	5e                   	pop    %esi
  10059a:	5f                   	pop    %edi
  10059b:	c3                   	ret    
  10059c:	8d 74 26 00          	lea    0x0(%esi,%eiz,1),%esi
}

static inline void
cli(void)
{
  asm volatile("cli");
  1005a0:	fa                   	cli    
  1005a1:	eb fe                	jmp    1005a1 <cons_putc+0xf1>
  pos = inb(CRTPORT+1) << 8;
  outb(CRTPORT, 15);
  pos |= inb(CRTPORT+1);

  if(c == '\n')
    pos += 80 - pos%80;
  1005a3:	89 d8                	mov    %ebx,%eax
  1005a5:	ba 67 66 66 66       	mov    $0x66666667,%edx
  1005aa:	f7 ea                	imul   %edx
  1005ac:	c1 fa 05             	sar    $0x5,%edx
  1005af:	8d 04 92             	lea    (%edx,%edx,4),%eax
  1005b2:	c1 e0 04             	shl    $0x4,%eax
  1005b5:	8d 58 50             	lea    0x50(%eax),%ebx
    if(pos > 0)
      crt[--pos] = ' ' | 0x0700;
  } else
    crt[pos++] = (c&0xff) | 0x0700;  // black on white

  if((pos/80) >= 24){  // Scroll up.
  1005b8:	81 fb 7f 07 00 00    	cmp    $0x77f,%ebx
  1005be:	7e a2                	jle    100562 <cons_putc+0xb2>
    memmove(crt, crt+80, sizeof(crt[0])*23*80);
  1005c0:	c7 44 24 08 60 0e 00 	movl   $0xe60,0x8(%esp)
  1005c7:	00 
    pos -= 80;
  1005c8:	8d 7b b0             	lea    -0x50(%ebx),%edi
      crt[--pos] = ' ' | 0x0700;
  } else
    crt[pos++] = (c&0xff) | 0x0700;  // black on white

  if((pos/80) >= 24){  // Scroll up.
    memmove(crt, crt+80, sizeof(crt[0])*23*80);
  1005cb:	c7 44 24 04 a0 80 0b 	movl   $0xb80a0,0x4(%esp)
  1005d2:	00 
    pos -= 80;
    memset(crt+pos, 0, sizeof(crt[0])*(24*80 - pos));
  1005d3:	8d b4 3f 00 80 0b 00 	lea    0xb8000(%edi,%edi,1),%esi
      crt[--pos] = ' ' | 0x0700;
  } else
    crt[pos++] = (c&0xff) | 0x0700;  // black on white

  if((pos/80) >= 24){  // Scroll up.
    memmove(crt, crt+80, sizeof(crt[0])*23*80);
  1005da:	c7 04 24 00 80 0b 00 	movl   $0xb8000,(%esp)
  1005e1:	e8 ba 08 00 00       	call   100ea0 <memmove>
    pos -= 80;
    memset(crt+pos, 0, sizeof(crt[0])*(24*80 - pos));
  1005e6:	b8 d0 07 00 00       	mov    $0x7d0,%eax
  1005eb:	29 d8                	sub    %ebx,%eax
  } else
    crt[pos++] = (c&0xff) | 0x0700;  // black on white

  if((pos/80) >= 24){  // Scroll up.
    memmove(crt, crt+80, sizeof(crt[0])*23*80);
    pos -= 80;
  1005ed:	89 fb                	mov    %edi,%ebx
    memset(crt+pos, 0, sizeof(crt[0])*(24*80 - pos));
  1005ef:	01 c0                	add    %eax,%eax
  1005f1:	89 44 24 08          	mov    %eax,0x8(%esp)
  1005f5:	c7 44 24 04 00 00 00 	movl   $0x0,0x4(%esp)
  1005fc:	00 
  1005fd:	89 34 24             	mov    %esi,(%esp)
  100600:	e8 0b 08 00 00       	call   100e10 <memset>
  100605:	e9 5f ff ff ff       	jmp    100569 <cons_putc+0xb9>
  pos |= inb(CRTPORT+1);

  if(c == '\n')
    pos += 80 - pos%80;
  else if(c == BACKSPACE){
    if(pos > 0)
  10060a:	85 db                	test   %ebx,%ebx
  10060c:	0f 8e 50 ff ff ff    	jle    100562 <cons_putc+0xb2>
      crt[--pos] = ' ' | 0x0700;
  100612:	83 eb 01             	sub    $0x1,%ebx
  100615:	66 c7 84 1b 00 80 0b 	movw   $0x720,0xb8000(%ebx,%ebx,1)
  10061c:	00 20 07 
  10061f:	e9 36 ff ff ff       	jmp    10055a <cons_putc+0xaa>
  100624:	8d b6 00 00 00 00    	lea    0x0(%esi),%esi
  10062a:	8d bf 00 00 00 00    	lea    0x0(%edi),%edi

00100630 <console_write>:
    release(&console_lock);
}

int
console_write(struct inode *ip, char *buf, int n)
{
  100630:	55                   	push   %ebp
  100631:	57                   	push   %edi
  100632:	56                   	push   %esi
  100633:	53                   	push   %ebx
  100634:	83 ec 1c             	sub    $0x1c,%esp
  100637:	8b 6c 24 30          	mov    0x30(%esp),%ebp
  10063b:	8b 74 24 38          	mov    0x38(%esp),%esi
  10063f:	8b 7c 24 34          	mov    0x34(%esp),%edi
  int i;

  iunlock(ip);
  100643:	89 2c 24             	mov    %ebp,(%esp)
  100646:	e8 c5 23 00 00       	call   102a10 <iunlock>
  acquire(&console_lock);
  10064b:	c7 04 24 e0 87 10 00 	movl   $0x1087e0,(%esp)
  100652:	e8 19 fc ff ff       	call   100270 <acquire>
  for(i = 0; i < n; i++)
  100657:	85 f6                	test   %esi,%esi
  100659:	7e 18                	jle    100673 <console_write+0x43>
  10065b:	31 db                	xor    %ebx,%ebx
  10065d:	8d 76 00             	lea    0x0(%esi),%esi
    cons_putc(buf[i] & 0xff);
  100660:	0f b6 14 1f          	movzbl (%edi,%ebx,1),%edx
{
  int i;

  iunlock(ip);
  acquire(&console_lock);
  for(i = 0; i < n; i++)
  100664:	83 c3 01             	add    $0x1,%ebx
    cons_putc(buf[i] & 0xff);
  100667:	89 14 24             	mov    %edx,(%esp)
  10066a:	e8 41 fe ff ff       	call   1004b0 <cons_putc>
{
  int i;

  iunlock(ip);
  acquire(&console_lock);
  for(i = 0; i < n; i++)
  10066f:	39 f3                	cmp    %esi,%ebx
  100671:	75 ed                	jne    100660 <console_write+0x30>
    cons_putc(buf[i] & 0xff);
  release(&console_lock);
  100673:	c7 04 24 e0 87 10 00 	movl   $0x1087e0,(%esp)
  10067a:	e8 e1 fc ff ff       	call   100360 <release>
  ilock(ip);
  10067f:	89 2c 24             	mov    %ebp,(%esp)
  100682:	e8 89 22 00 00       	call   102910 <ilock>

  return n;
}
  100687:	83 c4 1c             	add    $0x1c,%esp
  10068a:	89 f0                	mov    %esi,%eax
  10068c:	5b                   	pop    %ebx
  10068d:	5e                   	pop    %esi
  10068e:	5f                   	pop    %edi
  10068f:	5d                   	pop    %ebp
  100690:	c3                   	ret    
  100691:	eb 0d                	jmp    1006a0 <printint>
  100693:	90                   	nop
  100694:	90                   	nop
  100695:	90                   	nop
  100696:	90                   	nop
  100697:	90                   	nop
  100698:	90                   	nop
  100699:	90                   	nop
  10069a:	90                   	nop
  10069b:	90                   	nop
  10069c:	90                   	nop
  10069d:	90                   	nop
  10069e:	90                   	nop
  10069f:	90                   	nop

001006a0 <printint>:
  cga_putc(c);
}

void
printint(int xx, int base, int sgn)
{
  1006a0:	56                   	push   %esi
  1006a1:	53                   	push   %ebx
  1006a2:	83 ec 24             	sub    $0x24,%esp
  static char digits[] = "0123456789ABCDEF";
  char buf[16];
  int i = 0, neg = 0;
  uint x;

  if(sgn && xx < 0){
  1006a5:	8b 4c 24 38          	mov    0x38(%esp),%ecx
  cga_putc(c);
}

void
printint(int xx, int base, int sgn)
{
  1006a9:	8b 44 24 30          	mov    0x30(%esp),%eax
  1006ad:	8b 5c 24 34          	mov    0x34(%esp),%ebx
  static char digits[] = "0123456789ABCDEF";
  char buf[16];
  int i = 0, neg = 0;
  uint x;

  if(sgn && xx < 0){
  1006b1:	85 c9                	test   %ecx,%ecx
  1006b3:	74 63                	je     100718 <printint+0x78>
  1006b5:	89 c2                	mov    %eax,%edx
  1006b7:	c1 ea 1f             	shr    $0x1f,%edx
  1006ba:	84 d2                	test   %dl,%dl
  1006bc:	74 5a                	je     100718 <printint+0x78>
    neg = 1;
    x = 0 - xx;
  1006be:	f7 d8                	neg    %eax
  char buf[16];
  int i = 0, neg = 0;
  uint x;

  if(sgn && xx < 0){
    neg = 1;
  1006c0:	be 01 00 00 00       	mov    $0x1,%esi
void
printint(int xx, int base, int sgn)
{
  static char digits[] = "0123456789ABCDEF";
  char buf[16];
  int i = 0, neg = 0;
  1006c5:	31 c9                	xor    %ecx,%ecx
  1006c7:	eb 09                	jmp    1006d2 <printint+0x32>
  1006c9:	8d b4 26 00 00 00 00 	lea    0x0(%esi,%eiz,1),%esi
  } else {
    x = xx;
  }

  do{
    buf[i++] = digits[x % base];
  1006d0:	89 d1                	mov    %edx,%ecx
  1006d2:	31 d2                	xor    %edx,%edx
  1006d4:	f7 f3                	div    %ebx
  1006d6:	0f b6 92 be 5f 10 00 	movzbl 0x105fbe(%edx),%edx
  }while((x /= base) != 0);
  1006dd:	85 c0                	test   %eax,%eax
  } else {
    x = xx;
  }

  do{
    buf[i++] = digits[x % base];
  1006df:	88 54 0c 10          	mov    %dl,0x10(%esp,%ecx,1)
  1006e3:	8d 51 01             	lea    0x1(%ecx),%edx
  }while((x /= base) != 0);
  1006e6:	75 e8                	jne    1006d0 <printint+0x30>
  if(neg)
  1006e8:	85 f6                	test   %esi,%esi
  1006ea:	74 08                	je     1006f4 <printint+0x54>
    buf[i++] = '-';
  1006ec:	c6 44 14 10 2d       	movb   $0x2d,0x10(%esp,%edx,1)
  1006f1:	8d 51 02             	lea    0x2(%ecx),%edx

  while(--i >= 0)
  1006f4:	8d 5a ff             	lea    -0x1(%edx),%ebx
  1006f7:	90                   	nop
    cons_putc(buf[i]);
  1006f8:	0f be 44 1c 10       	movsbl 0x10(%esp,%ebx,1),%eax
    buf[i++] = digits[x % base];
  }while((x /= base) != 0);
  if(neg)
    buf[i++] = '-';

  while(--i >= 0)
  1006fd:	83 eb 01             	sub    $0x1,%ebx
    cons_putc(buf[i]);
  100700:	89 04 24             	mov    %eax,(%esp)
  100703:	e8 a8 fd ff ff       	call   1004b0 <cons_putc>
    buf[i++] = digits[x % base];
  }while((x /= base) != 0);
  if(neg)
    buf[i++] = '-';

  while(--i >= 0)
  100708:	83 fb ff             	cmp    $0xffffffff,%ebx
  10070b:	75 eb                	jne    1006f8 <printint+0x58>
    cons_putc(buf[i]);
}
  10070d:	83 c4 24             	add    $0x24,%esp
  100710:	5b                   	pop    %ebx
  100711:	5e                   	pop    %esi
  100712:	c3                   	ret    
  100713:	90                   	nop
  100714:	8d 74 26 00          	lea    0x0(%esi,%eiz,1),%esi
void
printint(int xx, int base, int sgn)
{
  static char digits[] = "0123456789ABCDEF";
  char buf[16];
  int i = 0, neg = 0;
  100718:	31 f6                	xor    %esi,%esi
  10071a:	eb a9                	jmp    1006c5 <printint+0x25>
  10071c:	8d 74 26 00          	lea    0x0(%esi,%eiz,1),%esi

00100720 <cprintf>:
}

// Print to the console. only understands %d, %x, %p, %s.
void
cprintf(char *fmt, ...)
{
  100720:	55                   	push   %ebp
  100721:	57                   	push   %edi
  100722:	56                   	push   %esi
  100723:	53                   	push   %ebx
  100724:	83 ec 2c             	sub    $0x2c,%esp
  int i, c, state, locking;
  uint *argp;
  char *s;

  locking = use_console_lock;
  100727:	a1 c0 87 10 00       	mov    0x1087c0,%eax
  if(locking)
  10072c:	85 c0                	test   %eax,%eax
{
  int i, c, state, locking;
  uint *argp;
  char *s;

  locking = use_console_lock;
  10072e:	89 44 24 1c          	mov    %eax,0x1c(%esp)
  if(locking)
  100732:	0f 85 58 01 00 00    	jne    100890 <cprintf+0x170>
    acquire(&console_lock);

  argp = (uint*)(void*)&fmt + 1;
  state = 0;
  for(i = 0; fmt[i]; i++){
  100738:	8b 5c 24 40          	mov    0x40(%esp),%ebx
  10073c:	0f b6 03             	movzbl (%ebx),%eax
  10073f:	84 c0                	test   %al,%al
  100741:	74 75                	je     1007b8 <cprintf+0x98>
  100743:	8d 6c 24 44          	lea    0x44(%esp),%ebp
  100747:	31 ff                	xor    %edi,%edi
  100749:	eb 27                	jmp    100772 <cprintf+0x52>
  10074b:	90                   	nop
  10074c:	8d 74 26 00          	lea    0x0(%esi,%eiz,1),%esi
    c = fmt[i] & 0xff;
    switch(state){
    case 0:
      if(c == '%')
  100750:	83 fe 25             	cmp    $0x25,%esi
  100753:	0f 84 7f 00 00 00    	je     1007d8 <cprintf+0xb8>
        state = '%';
      else
        cons_putc(c);
  100759:	89 34 24             	mov    %esi,(%esp)
  10075c:	e8 4f fd ff ff       	call   1004b0 <cons_putc>
  100761:	8d b4 26 00 00 00 00 	lea    0x0(%esi,%eiz,1),%esi
        break;
      default:
        // Print unknown % sequence to draw attention.
        cons_putc('%');
        cons_putc(c);
        break;
  100768:	83 c3 01             	add    $0x1,%ebx
  if(locking)
    acquire(&console_lock);

  argp = (uint*)(void*)&fmt + 1;
  state = 0;
  for(i = 0; fmt[i]; i++){
  10076b:	0f b6 03             	movzbl (%ebx),%eax
  10076e:	84 c0                	test   %al,%al
  100770:	74 46                	je     1007b8 <cprintf+0x98>
    c = fmt[i] & 0xff;
    switch(state){
  100772:	85 ff                	test   %edi,%edi
    acquire(&console_lock);

  argp = (uint*)(void*)&fmt + 1;
  state = 0;
  for(i = 0; fmt[i]; i++){
    c = fmt[i] & 0xff;
  100774:	0f b6 f0             	movzbl %al,%esi
    switch(state){
  100777:	74 d7                	je     100750 <cprintf+0x30>
  100779:	83 ff 25             	cmp    $0x25,%edi
  10077c:	75 ea                	jne    100768 <cprintf+0x48>
      else
        cons_putc(c);
      break;

    case '%':
      switch(c){
  10077e:	83 fe 70             	cmp    $0x70,%esi
  100781:	74 67                	je     1007ea <cprintf+0xca>
  100783:	7f 5b                	jg     1007e0 <cprintf+0xc0>
  100785:	83 fe 25             	cmp    $0x25,%esi
  100788:	0f 84 ea 00 00 00    	je     100878 <cprintf+0x158>
  10078e:	83 fe 64             	cmp    $0x64,%esi
  100791:	0f 84 b9 00 00 00    	je     100850 <cprintf+0x130>
      case '%':
        cons_putc('%');
        break;
      default:
        // Print unknown % sequence to draw attention.
        cons_putc('%');
  100797:	c7 04 24 25 00 00 00 	movl   $0x25,(%esp)
        cons_putc(c);
        break;
  10079e:	83 c3 01             	add    $0x1,%ebx
      }
      state = 0;
  1007a1:	31 ff                	xor    %edi,%edi
      case '%':
        cons_putc('%');
        break;
      default:
        // Print unknown % sequence to draw attention.
        cons_putc('%');
  1007a3:	e8 08 fd ff ff       	call   1004b0 <cons_putc>
        cons_putc(c);
  1007a8:	89 34 24             	mov    %esi,(%esp)
  1007ab:	e8 00 fd ff ff       	call   1004b0 <cons_putc>
  if(locking)
    acquire(&console_lock);

  argp = (uint*)(void*)&fmt + 1;
  state = 0;
  for(i = 0; fmt[i]; i++){
  1007b0:	0f b6 03             	movzbl (%ebx),%eax
  1007b3:	84 c0                	test   %al,%al
  1007b5:	75 bb                	jne    100772 <cprintf+0x52>
  1007b7:	90                   	nop
      state = 0;
      break;
    }
  }

  if(locking)
  1007b8:	8b 5c 24 1c          	mov    0x1c(%esp),%ebx
  1007bc:	85 db                	test   %ebx,%ebx
  1007be:	74 0c                	je     1007cc <cprintf+0xac>
    release(&console_lock);
  1007c0:	c7 04 24 e0 87 10 00 	movl   $0x1087e0,(%esp)
  1007c7:	e8 94 fb ff ff       	call   100360 <release>
}
  1007cc:	83 c4 2c             	add    $0x2c,%esp
  1007cf:	5b                   	pop    %ebx
  1007d0:	5e                   	pop    %esi
  1007d1:	5f                   	pop    %edi
  1007d2:	5d                   	pop    %ebp
  1007d3:	c3                   	ret    
  1007d4:	8d 74 26 00          	lea    0x0(%esi,%eiz,1),%esi
  for(i = 0; fmt[i]; i++){
    c = fmt[i] & 0xff;
    switch(state){
    case 0:
      if(c == '%')
        state = '%';
  1007d8:	bf 25 00 00 00       	mov    $0x25,%edi
  1007dd:	eb 89                	jmp    100768 <cprintf+0x48>
  1007df:	90                   	nop
      else
        cons_putc(c);
      break;

    case '%':
      switch(c){
  1007e0:	83 fe 73             	cmp    $0x73,%esi
  1007e3:	74 2b                	je     100810 <cprintf+0xf0>
  1007e5:	83 fe 78             	cmp    $0x78,%esi
  1007e8:	75 ad                	jne    100797 <cprintf+0x77>
      case 'd':
        printint(*argp++, 10, 1);
        break;
      case 'x':
      case 'p':
        printint(*argp++, 16, 0);
  1007ea:	8b 45 00             	mov    0x0(%ebp),%eax
        // Print unknown % sequence to draw attention.
        cons_putc('%');
        cons_putc(c);
        break;
      }
      state = 0;
  1007ed:	31 ff                	xor    %edi,%edi
      case 'd':
        printint(*argp++, 10, 1);
        break;
      case 'x':
      case 'p':
        printint(*argp++, 16, 0);
  1007ef:	83 c5 04             	add    $0x4,%ebp
  1007f2:	c7 44 24 08 00 00 00 	movl   $0x0,0x8(%esp)
  1007f9:	00 
  1007fa:	c7 44 24 04 10 00 00 	movl   $0x10,0x4(%esp)
  100801:	00 
  100802:	89 04 24             	mov    %eax,(%esp)
  100805:	e8 96 fe ff ff       	call   1006a0 <printint>
        break;
  10080a:	e9 59 ff ff ff       	jmp    100768 <cprintf+0x48>
  10080f:	90                   	nop
      case 's':
        s = (char*)*argp++;
  100810:	8b 75 00             	mov    0x0(%ebp),%esi
        if(s == 0)
          s = "(null)";
  100813:	b8 8e 5f 10 00       	mov    $0x105f8e,%eax
      case 'x':
      case 'p':
        printint(*argp++, 16, 0);
        break;
      case 's':
        s = (char*)*argp++;
  100818:	83 c5 04             	add    $0x4,%ebp
        if(s == 0)
          s = "(null)";
  10081b:	85 f6                	test   %esi,%esi
  10081d:	0f 44 f0             	cmove  %eax,%esi
        // Print unknown % sequence to draw attention.
        cons_putc('%');
        cons_putc(c);
        break;
      }
      state = 0;
  100820:	31 ff                	xor    %edi,%edi
        break;
      case 's':
        s = (char*)*argp++;
        if(s == 0)
          s = "(null)";
        for(; *s; s++)
  100822:	0f b6 06             	movzbl (%esi),%eax
  100825:	84 c0                	test   %al,%al
  100827:	0f 84 3b ff ff ff    	je     100768 <cprintf+0x48>
  10082d:	8d 76 00             	lea    0x0(%esi),%esi
          cons_putc(*s);
  100830:	0f be c0             	movsbl %al,%eax
        break;
      case 's':
        s = (char*)*argp++;
        if(s == 0)
          s = "(null)";
        for(; *s; s++)
  100833:	83 c6 01             	add    $0x1,%esi
          cons_putc(*s);
  100836:	89 04 24             	mov    %eax,(%esp)
  100839:	e8 72 fc ff ff       	call   1004b0 <cons_putc>
        break;
      case 's':
        s = (char*)*argp++;
        if(s == 0)
          s = "(null)";
        for(; *s; s++)
  10083e:	0f b6 06             	movzbl (%esi),%eax
  100841:	84 c0                	test   %al,%al
  100843:	75 eb                	jne    100830 <cprintf+0x110>
        // Print unknown % sequence to draw attention.
        cons_putc('%');
        cons_putc(c);
        break;
      }
      state = 0;
  100845:	31 ff                	xor    %edi,%edi
        for(; *s; s++)
          cons_putc(*s);
        break;
      case '%':
        cons_putc('%');
        break;
  100847:	e9 1c ff ff ff       	jmp    100768 <cprintf+0x48>
  10084c:	8d 74 26 00          	lea    0x0(%esi,%eiz,1),%esi
      break;

    case '%':
      switch(c){
      case 'd':
        printint(*argp++, 10, 1);
  100850:	8b 45 00             	mov    0x0(%ebp),%eax
        // Print unknown % sequence to draw attention.
        cons_putc('%');
        cons_putc(c);
        break;
      }
      state = 0;
  100853:	31 ff                	xor    %edi,%edi
      break;

    case '%':
      switch(c){
      case 'd':
        printint(*argp++, 10, 1);
  100855:	83 c5 04             	add    $0x4,%ebp
  100858:	c7 44 24 08 01 00 00 	movl   $0x1,0x8(%esp)
  10085f:	00 
  100860:	c7 44 24 04 0a 00 00 	movl   $0xa,0x4(%esp)
  100867:	00 
  100868:	89 04 24             	mov    %eax,(%esp)
  10086b:	e8 30 fe ff ff       	call   1006a0 <printint>
        break;
  100870:	e9 f3 fe ff ff       	jmp    100768 <cprintf+0x48>
  100875:	8d 76 00             	lea    0x0(%esi),%esi
          s = "(null)";
        for(; *s; s++)
          cons_putc(*s);
        break;
      case '%':
        cons_putc('%');
  100878:	c7 04 24 25 00 00 00 	movl   $0x25,(%esp)
        // Print unknown % sequence to draw attention.
        cons_putc('%');
        cons_putc(c);
        break;
      }
      state = 0;
  10087f:	31 ff                	xor    %edi,%edi
          s = "(null)";
        for(; *s; s++)
          cons_putc(*s);
        break;
      case '%':
        cons_putc('%');
  100881:	e8 2a fc ff ff       	call   1004b0 <cons_putc>
  100886:	e9 dd fe ff ff       	jmp    100768 <cprintf+0x48>
  10088b:	90                   	nop
  10088c:	8d 74 26 00          	lea    0x0(%esi,%eiz,1),%esi
  uint *argp;
  char *s;

  locking = use_console_lock;
  if(locking)
    acquire(&console_lock);
  100890:	c7 04 24 e0 87 10 00 	movl   $0x1087e0,(%esp)
  100897:	e8 d4 f9 ff ff       	call   100270 <acquire>
  10089c:	e9 97 fe ff ff       	jmp    100738 <cprintf+0x18>
  1008a1:	eb 0d                	jmp    1008b0 <console_intr>
  1008a3:	90                   	nop
  1008a4:	90                   	nop
  1008a5:	90                   	nop
  1008a6:	90                   	nop
  1008a7:	90                   	nop
  1008a8:	90                   	nop
  1008a9:	90                   	nop
  1008aa:	90                   	nop
  1008ab:	90                   	nop
  1008ac:	90                   	nop
  1008ad:	90                   	nop
  1008ae:	90                   	nop
  1008af:	90                   	nop

001008b0 <console_intr>:

#define C(x)  ((x)-'@')  // Control-x

void
console_intr(int (*getc)(void))
{
  1008b0:	56                   	push   %esi
  1008b1:	53                   	push   %ebx
  1008b2:	83 ec 24             	sub    $0x24,%esp
  int c;

  acquire(&input.lock);
  1008b5:	c7 04 24 60 88 10 00 	movl   $0x108860,(%esp)

#define C(x)  ((x)-'@')  // Control-x

void
console_intr(int (*getc)(void))
{
  1008bc:	8b 5c 24 30          	mov    0x30(%esp),%ebx
  int c;

  acquire(&input.lock);
  1008c0:	e8 ab f9 ff ff       	call   100270 <acquire>
  1008c5:	8d 76 00             	lea    0x0(%esi),%esi
  while((c = getc()) >= 0){
  1008c8:	ff d3                	call   *%ebx
  1008ca:	85 c0                	test   %eax,%eax
  1008cc:	0f 88 96 00 00 00    	js     100968 <console_intr+0xb8>
    switch(c){
  1008d2:	83 f8 10             	cmp    $0x10,%eax
  1008d5:	0f 84 a5 00 00 00    	je     100980 <console_intr+0xd0>
  1008db:	83 f8 15             	cmp    $0x15,%eax
  1008de:	66 90                	xchg   %ax,%ax
  1008e0:	0f 84 da 00 00 00    	je     1009c0 <console_intr+0x110>
  1008e6:	83 f8 08             	cmp    $0x8,%eax
  1008e9:	0f 84 a1 00 00 00    	je     100990 <console_intr+0xe0>
        input.e--;
        cons_putc(BACKSPACE);
      }
      break;
    default:
      if(c != 0 && input.e < input.r+INPUT_BUF){
  1008ef:	85 c0                	test   %eax,%eax
  1008f1:	74 d5                	je     1008c8 <console_intr+0x18>
  1008f3:	8b 0d 14 89 10 00    	mov    0x108914,%ecx
  1008f9:	8b 15 1c 89 10 00    	mov    0x10891c,%edx
  1008ff:	83 c1 7f             	add    $0x7f,%ecx
  100902:	39 d1                	cmp    %edx,%ecx
  100904:	7c c2                	jl     1008c8 <console_intr+0x18>
        input.buf[input.e++ % INPUT_BUF] = c;
  100906:	89 d6                	mov    %edx,%esi
  100908:	c1 fe 1f             	sar    $0x1f,%esi
  10090b:	c1 ee 19             	shr    $0x19,%esi
  10090e:	8d 0c 32             	lea    (%edx,%esi,1),%ecx
  100911:	83 c2 01             	add    $0x1,%edx
  100914:	83 e1 7f             	and    $0x7f,%ecx
  100917:	29 f1                	sub    %esi,%ecx
        cons_putc(c);
  100919:	89 04 24             	mov    %eax,(%esp)
        cons_putc(BACKSPACE);
      }
      break;
    default:
      if(c != 0 && input.e < input.r+INPUT_BUF){
        input.buf[input.e++ % INPUT_BUF] = c;
  10091c:	88 81 94 88 10 00    	mov    %al,0x108894(%ecx)
        cons_putc(c);
  100922:	89 44 24 1c          	mov    %eax,0x1c(%esp)
        cons_putc(BACKSPACE);
      }
      break;
    default:
      if(c != 0 && input.e < input.r+INPUT_BUF){
        input.buf[input.e++ % INPUT_BUF] = c;
  100926:	89 15 1c 89 10 00    	mov    %edx,0x10891c
        cons_putc(c);
  10092c:	e8 7f fb ff ff       	call   1004b0 <cons_putc>
        if(c == '\n' || c == C('D') || input.e == input.r+INPUT_BUF){
  100931:	8b 44 24 1c          	mov    0x1c(%esp),%eax
  100935:	83 f8 04             	cmp    $0x4,%eax
  100938:	0f 84 df 00 00 00    	je     100a1d <console_intr+0x16d>
  10093e:	83 f8 0a             	cmp    $0xa,%eax
  100941:	0f 84 d6 00 00 00    	je     100a1d <console_intr+0x16d>
  100947:	8b 15 14 89 10 00    	mov    0x108914,%edx
  10094d:	a1 1c 89 10 00       	mov    0x10891c,%eax
  100952:	83 ea 80             	sub    $0xffffff80,%edx
  100955:	39 d0                	cmp    %edx,%eax
  100957:	0f 84 c5 00 00 00    	je     100a22 <console_intr+0x172>
console_intr(int (*getc)(void))
{
  int c;

  acquire(&input.lock);
  while((c = getc()) >= 0){
  10095d:	ff d3                	call   *%ebx
  10095f:	85 c0                	test   %eax,%eax
  100961:	0f 89 6b ff ff ff    	jns    1008d2 <console_intr+0x22>
  100967:	90                   	nop
        }
      }
      break;
    }
  }
  release(&input.lock);
  100968:	c7 44 24 30 60 88 10 	movl   $0x108860,0x30(%esp)
  10096f:	00 
}
  100970:	83 c4 24             	add    $0x24,%esp
  100973:	5b                   	pop    %ebx
  100974:	5e                   	pop    %esi
        }
      }
      break;
    }
  }
  release(&input.lock);
  100975:	e9 e6 f9 ff ff       	jmp    100360 <release>
  10097a:	8d b6 00 00 00 00    	lea    0x0(%esi),%esi

  acquire(&input.lock);
  while((c = getc()) >= 0){
    switch(c){
    case C('P'):  // Process listing.
      procdump();
  100980:	e8 ab 11 00 00       	call   101b30 <procdump>
      break;
  100985:	e9 3e ff ff ff       	jmp    1008c8 <console_intr+0x18>
  10098a:	8d b6 00 00 00 00    	lea    0x0(%esi),%esi
        input.e--;
        cons_putc(BACKSPACE);
      }
      break;
    case C('H'):  // Backspace
      if(input.e > input.w){
  100990:	a1 1c 89 10 00       	mov    0x10891c,%eax
  100995:	3b 05 18 89 10 00    	cmp    0x108918,%eax
  10099b:	0f 8e 27 ff ff ff    	jle    1008c8 <console_intr+0x18>
        input.e--;
  1009a1:	83 e8 01             	sub    $0x1,%eax
        cons_putc(BACKSPACE);
  1009a4:	c7 04 24 00 01 00 00 	movl   $0x100,(%esp)
        cons_putc(BACKSPACE);
      }
      break;
    case C('H'):  // Backspace
      if(input.e > input.w){
        input.e--;
  1009ab:	a3 1c 89 10 00       	mov    %eax,0x10891c
        cons_putc(BACKSPACE);
  1009b0:	e8 fb fa ff ff       	call   1004b0 <cons_putc>
  1009b5:	e9 0e ff ff ff       	jmp    1008c8 <console_intr+0x18>
  1009ba:	8d b6 00 00 00 00    	lea    0x0(%esi),%esi
    switch(c){
    case C('P'):  // Process listing.
      procdump();
      break;
    case C('U'):  // Kill line.
      while(input.e > input.w &&
  1009c0:	8b 0d 1c 89 10 00    	mov    0x10891c,%ecx
  1009c6:	39 0d 18 89 10 00    	cmp    %ecx,0x108918
  1009cc:	7c 2e                	jl     1009fc <console_intr+0x14c>
  1009ce:	e9 f5 fe ff ff       	jmp    1008c8 <console_intr+0x18>
  1009d3:	90                   	nop
  1009d4:	8d 74 26 00          	lea    0x0(%esi,%eiz,1),%esi
            input.buf[(input.e-1) % INPUT_BUF] != '\n'){
        input.e--;
        cons_putc(BACKSPACE);
  1009d8:	c7 04 24 00 01 00 00 	movl   $0x100,(%esp)
      procdump();
      break;
    case C('U'):  // Kill line.
      while(input.e > input.w &&
            input.buf[(input.e-1) % INPUT_BUF] != '\n'){
        input.e--;
  1009df:	89 0d 1c 89 10 00    	mov    %ecx,0x10891c
        cons_putc(BACKSPACE);
  1009e5:	e8 c6 fa ff ff       	call   1004b0 <cons_putc>
    switch(c){
    case C('P'):  // Process listing.
      procdump();
      break;
    case C('U'):  // Kill line.
      while(input.e > input.w &&
  1009ea:	8b 0d 1c 89 10 00    	mov    0x10891c,%ecx
  1009f0:	3b 0d 18 89 10 00    	cmp    0x108918,%ecx
  1009f6:	0f 8e cc fe ff ff    	jle    1008c8 <console_intr+0x18>
            input.buf[(input.e-1) % INPUT_BUF] != '\n'){
  1009fc:	83 e9 01             	sub    $0x1,%ecx
  1009ff:	89 ca                	mov    %ecx,%edx
  100a01:	c1 fa 1f             	sar    $0x1f,%edx
  100a04:	c1 ea 19             	shr    $0x19,%edx
  100a07:	8d 04 11             	lea    (%ecx,%edx,1),%eax
  100a0a:	83 e0 7f             	and    $0x7f,%eax
  100a0d:	29 d0                	sub    %edx,%eax
    switch(c){
    case C('P'):  // Process listing.
      procdump();
      break;
    case C('U'):  // Kill line.
      while(input.e > input.w &&
  100a0f:	80 b8 94 88 10 00 0a 	cmpb   $0xa,0x108894(%eax)
  100a16:	75 c0                	jne    1009d8 <console_intr+0x128>
  100a18:	e9 ab fe ff ff       	jmp    1008c8 <console_intr+0x18>
      break;
    default:
      if(c != 0 && input.e < input.r+INPUT_BUF){
        input.buf[input.e++ % INPUT_BUF] = c;
        cons_putc(c);
        if(c == '\n' || c == C('D') || input.e == input.r+INPUT_BUF){
  100a1d:	a1 1c 89 10 00       	mov    0x10891c,%eax
          input.w = input.e;
          wakeup(&input.r);
  100a22:	c7 04 24 14 89 10 00 	movl   $0x108914,(%esp)
    default:
      if(c != 0 && input.e < input.r+INPUT_BUF){
        input.buf[input.e++ % INPUT_BUF] = c;
        cons_putc(c);
        if(c == '\n' || c == C('D') || input.e == input.r+INPUT_BUF){
          input.w = input.e;
  100a29:	a3 18 89 10 00       	mov    %eax,0x108918
          wakeup(&input.r);
  100a2e:	e8 cd 0d 00 00       	call   101800 <wakeup>
  100a33:	e9 90 fe ff ff       	jmp    1008c8 <console_intr+0x18>
  100a38:	90                   	nop
  100a39:	8d b4 26 00 00 00 00 	lea    0x0(%esi,%eiz,1),%esi

00100a40 <console_init>:
  return target - n;
}

void
console_init(void)
{
  100a40:	83 ec 1c             	sub    $0x1c,%esp
  initlock(&console_lock, "console");
  100a43:	c7 44 24 04 95 5f 10 	movl   $0x105f95,0x4(%esp)
  100a4a:	00 
  100a4b:	c7 04 24 e0 87 10 00 	movl   $0x1087e0,(%esp)
  100a52:	e8 29 f7 ff ff       	call   100180 <initlock>
  initlock(&input.lock, "console input");
  100a57:	c7 44 24 04 9d 5f 10 	movl   $0x105f9d,0x4(%esp)
  100a5e:	00 
  100a5f:	c7 04 24 60 88 10 00 	movl   $0x108860,(%esp)
  100a66:	e8 15 f7 ff ff       	call   100180 <initlock>

  devsw[CONSOLE].write = console_write;
  devsw[CONSOLE].read = console_read;
  use_console_lock = 1;

  pic_enable(IRQ_KBD);
  100a6b:	c7 04 24 01 00 00 00 	movl   $0x1,(%esp)
console_init(void)
{
  initlock(&console_lock, "console");
  initlock(&input.lock, "console input");

  devsw[CONSOLE].write = console_write;
  100a72:	c7 05 ac e8 10 00 30 	movl   $0x100630,0x10e8ac
  100a79:	06 10 00 
  devsw[CONSOLE].read = console_read;
  100a7c:	c7 05 a8 e8 10 00 a0 	movl   $0x1003a0,0x10e8a8
  100a83:	03 10 00 
  use_console_lock = 1;
  100a86:	c7 05 c0 87 10 00 01 	movl   $0x1,0x1087c0
  100a8d:	00 00 00 

  pic_enable(IRQ_KBD);
  100a90:	e8 5b 2d 00 00       	call   1037f0 <pic_enable>
  ioapic_enable(IRQ_KBD, 0);
  100a95:	c7 44 24 04 00 00 00 	movl   $0x0,0x4(%esp)
  100a9c:	00 
  100a9d:	c7 04 24 01 00 00 00 	movl   $0x1,(%esp)
  100aa4:	e8 07 12 00 00       	call   101cb0 <ioapic_enable>
}
  100aa9:	83 c4 1c             	add    $0x1c,%esp
  100aac:	c3                   	ret    
  100aad:	8d 76 00             	lea    0x0(%esi),%esi

00100ab0 <panic>:

void
panic(char *s)
{
  100ab0:	56                   	push   %esi
  100ab1:	53                   	push   %ebx
  100ab2:	83 ec 44             	sub    $0x44,%esp
  int i;
  uint pcs[10];

  __asm __volatile("cli");
  use_console_lock = 0;
  100ab5:	c7 05 c0 87 10 00 00 	movl   $0x0,0x1087c0
  100abc:	00 00 00 
panic(char *s)
{
  int i;
  uint pcs[10];

  __asm __volatile("cli");
  100abf:	fa                   	cli    
  use_console_lock = 0;
  cprintf("cpu%d: panic: ", cpu());
  100ac0:	e8 6b 01 00 00       	call   100c30 <cpu>
  cprintf(s, 0);
  cprintf("\n", 0);
  getcallerpcs(&s, pcs);
  100ac5:	8d 5c 24 18          	lea    0x18(%esp),%ebx
  int i;
  uint pcs[10];

  __asm __volatile("cli");
  use_console_lock = 0;
  cprintf("cpu%d: panic: ", cpu());
  100ac9:	c7 04 24 ab 5f 10 00 	movl   $0x105fab,(%esp)
  pic_enable(IRQ_KBD);
  ioapic_enable(IRQ_KBD, 0);
}

void
panic(char *s)
  100ad0:	8d 74 24 40          	lea    0x40(%esp),%esi
  int i;
  uint pcs[10];

  __asm __volatile("cli");
  use_console_lock = 0;
  cprintf("cpu%d: panic: ", cpu());
  100ad4:	89 44 24 04          	mov    %eax,0x4(%esp)
  100ad8:	e8 43 fc ff ff       	call   100720 <cprintf>
  cprintf(s, 0);
  100add:	8b 44 24 50          	mov    0x50(%esp),%eax
  100ae1:	c7 44 24 04 00 00 00 	movl   $0x0,0x4(%esp)
  100ae8:	00 
  100ae9:	89 04 24             	mov    %eax,(%esp)
  100aec:	e8 2f fc ff ff       	call   100720 <cprintf>
  cprintf("\n", 0);
  100af1:	c7 44 24 04 00 00 00 	movl   $0x0,0x4(%esp)
  100af8:	00 
  100af9:	c7 04 24 9c 66 10 00 	movl   $0x10669c,(%esp)
  100b00:	e8 1b fc ff ff       	call   100720 <cprintf>
  getcallerpcs(&s, pcs);
  100b05:	8d 44 24 50          	lea    0x50(%esp),%eax
  100b09:	89 5c 24 04          	mov    %ebx,0x4(%esp)
  100b0d:	89 04 24             	mov    %eax,(%esp)
  100b10:	e8 8b f6 ff ff       	call   1001a0 <getcallerpcs>
  100b15:	8d 76 00             	lea    0x0(%esi),%esi
  for(i=0; i<10; i++)
    cprintf(" %p", pcs[i]);
  100b18:	8b 03                	mov    (%ebx),%eax
  100b1a:	83 c3 04             	add    $0x4,%ebx
  100b1d:	c7 04 24 ba 5f 10 00 	movl   $0x105fba,(%esp)
  100b24:	89 44 24 04          	mov    %eax,0x4(%esp)
  100b28:	e8 f3 fb ff ff       	call   100720 <cprintf>
  use_console_lock = 0;
  cprintf("cpu%d: panic: ", cpu());
  cprintf(s, 0);
  cprintf("\n", 0);
  getcallerpcs(&s, pcs);
  for(i=0; i<10; i++)
  100b2d:	39 f3                	cmp    %esi,%ebx
  100b2f:	75 e7                	jne    100b18 <panic+0x68>
    cprintf(" %p", pcs[i]);
  panicked = 1; // freeze other CPU
  100b31:	c7 05 c4 87 10 00 01 	movl   $0x1,0x1087c4
  100b38:	00 00 00 
  100b3b:	eb fe                	jmp    100b3b <panic+0x8b>
  100b3d:	90                   	nop
  100b3e:	90                   	nop
  100b3f:	90                   	nop

00100b40 <lapic_init>:
}

void
lapic_init(int c)
{
  if(!lapic)
  100b40:	a1 20 89 10 00       	mov    0x108920,%eax
  100b45:	85 c0                	test   %eax,%eax
  100b47:	0f 84 c3 00 00 00    	je     100c10 <lapic_init+0xd0>
volatile uint *lapic;  // Initialized in mp.c

static void
lapicw(int index, int value)
{
  lapic[index] = value;
  100b4d:	c7 80 f0 00 00 00 3f 	movl   $0x13f,0xf0(%eax)
  100b54:	01 00 00 
  lapic[ID];  // wait for write to finish, by reading
  100b57:	8b 50 20             	mov    0x20(%eax),%edx
volatile uint *lapic;  // Initialized in mp.c

static void
lapicw(int index, int value)
{
  lapic[index] = value;
  100b5a:	c7 80 e0 03 00 00 0b 	movl   $0xb,0x3e0(%eax)
  100b61:	00 00 00 
  lapic[ID];  // wait for write to finish, by reading
  100b64:	8b 50 20             	mov    0x20(%eax),%edx
volatile uint *lapic;  // Initialized in mp.c

static void
lapicw(int index, int value)
{
  lapic[index] = value;
  100b67:	c7 80 20 03 00 00 20 	movl   $0x20020,0x320(%eax)
  100b6e:	00 02 00 
  lapic[ID];  // wait for write to finish, by reading
  100b71:	8b 50 20             	mov    0x20(%eax),%edx
volatile uint *lapic;  // Initialized in mp.c

static void
lapicw(int index, int value)
{
  lapic[index] = value;
  100b74:	c7 80 80 03 00 00 80 	movl   $0x989680,0x380(%eax)
  100b7b:	96 98 00 
  lapic[ID];  // wait for write to finish, by reading
  100b7e:	8b 50 20             	mov    0x20(%eax),%edx
volatile uint *lapic;  // Initialized in mp.c

static void
lapicw(int index, int value)
{
  lapic[index] = value;
  100b81:	c7 80 50 03 00 00 00 	movl   $0x10000,0x350(%eax)
  100b88:	00 01 00 
  lapic[ID];  // wait for write to finish, by reading
  100b8b:	8b 50 20             	mov    0x20(%eax),%edx
volatile uint *lapic;  // Initialized in mp.c

static void
lapicw(int index, int value)
{
  lapic[index] = value;
  100b8e:	c7 80 60 03 00 00 00 	movl   $0x10000,0x360(%eax)
  100b95:	00 01 00 
  lapic[ID];  // wait for write to finish, by reading
  100b98:	8b 50 20             	mov    0x20(%eax),%edx
  lapicw(LINT0, MASKED);
  lapicw(LINT1, MASKED);

  // Disable performance counter overflow interrupts
  // on machines that provide that interrupt entry.
  if(((lapic[VER]>>16) & 0xFF) >= 4)
  100b9b:	8b 50 30             	mov    0x30(%eax),%edx
  100b9e:	c1 ea 10             	shr    $0x10,%edx
  100ba1:	80 fa 03             	cmp    $0x3,%dl
  100ba4:	77 72                	ja     100c18 <lapic_init+0xd8>
volatile uint *lapic;  // Initialized in mp.c

static void
lapicw(int index, int value)
{
  lapic[index] = value;
  100ba6:	c7 80 70 03 00 00 33 	movl   $0x33,0x370(%eax)
  100bad:	00 00 00 
  lapic[ID];  // wait for write to finish, by reading
  100bb0:	8b 50 20             	mov    0x20(%eax),%edx
volatile uint *lapic;  // Initialized in mp.c

static void
lapicw(int index, int value)
{
  lapic[index] = value;
  100bb3:	c7 80 80 02 00 00 00 	movl   $0x0,0x280(%eax)
  100bba:	00 00 00 
  lapic[ID];  // wait for write to finish, by reading
  100bbd:	8b 50 20             	mov    0x20(%eax),%edx
volatile uint *lapic;  // Initialized in mp.c

static void
lapicw(int index, int value)
{
  lapic[index] = value;
  100bc0:	c7 80 80 02 00 00 00 	movl   $0x0,0x280(%eax)
  100bc7:	00 00 00 
  lapic[ID];  // wait for write to finish, by reading
  100bca:	8b 50 20             	mov    0x20(%eax),%edx
volatile uint *lapic;  // Initialized in mp.c

static void
lapicw(int index, int value)
{
  lapic[index] = value;
  100bcd:	c7 80 b0 00 00 00 00 	movl   $0x0,0xb0(%eax)
  100bd4:	00 00 00 
  lapic[ID];  // wait for write to finish, by reading
  100bd7:	8b 50 20             	mov    0x20(%eax),%edx
volatile uint *lapic;  // Initialized in mp.c

static void
lapicw(int index, int value)
{
  lapic[index] = value;
  100bda:	c7 80 10 03 00 00 00 	movl   $0x0,0x310(%eax)
  100be1:	00 00 00 
  lapic[ID];  // wait for write to finish, by reading
  100be4:	8b 50 20             	mov    0x20(%eax),%edx
volatile uint *lapic;  // Initialized in mp.c

static void
lapicw(int index, int value)
{
  lapic[index] = value;
  100be7:	c7 80 00 03 00 00 00 	movl   $0x88500,0x300(%eax)
  100bee:	85 08 00 
  lapic[ID];  // wait for write to finish, by reading
  100bf1:	8b 50 20             	mov    0x20(%eax),%edx
  100bf4:	8d 74 26 00          	lea    0x0(%esi,%eiz,1),%esi
  lapicw(EOI, 0);

  // Send an Init Level De-Assert to synchronise arbitration ID's.
  lapicw(ICRHI, 0);
  lapicw(ICRLO, BCAST | INIT | LEVEL);
  while(lapic[ICRLO] & DELIVS)
  100bf8:	8b 90 00 03 00 00    	mov    0x300(%eax),%edx
  100bfe:	80 e6 10             	and    $0x10,%dh
  100c01:	75 f5                	jne    100bf8 <lapic_init+0xb8>
volatile uint *lapic;  // Initialized in mp.c

static void
lapicw(int index, int value)
{
  lapic[index] = value;
  100c03:	c7 80 80 00 00 00 00 	movl   $0x0,0x80(%eax)
  100c0a:	00 00 00 
  lapic[ID];  // wait for write to finish, by reading
  100c0d:	8b 40 20             	mov    0x20(%eax),%eax
  100c10:	f3 c3                	repz ret 
  100c12:	8d b6 00 00 00 00    	lea    0x0(%esi),%esi
volatile uint *lapic;  // Initialized in mp.c

static void
lapicw(int index, int value)
{
  lapic[index] = value;
  100c18:	c7 80 40 03 00 00 00 	movl   $0x10000,0x340(%eax)
  100c1f:	00 01 00 
  lapic[ID];  // wait for write to finish, by reading
  100c22:	8b 50 20             	mov    0x20(%eax),%edx
  100c25:	e9 7c ff ff ff       	jmp    100ba6 <lapic_init+0x66>
  100c2a:	8d b6 00 00 00 00    	lea    0x0(%esi),%esi

00100c30 <cpu>:
  lapicw(TPR, 0);
}

int
cpu(void)
{
  100c30:	83 ec 1c             	sub    $0x1c,%esp

static inline uint
read_eflags(void)
{
  uint eflags;
  asm volatile("pushfl; popl %0" : "=r" (eflags));
  100c33:	9c                   	pushf  
  100c34:	58                   	pop    %eax
  // Cannot call cpu when interrupts are enabled:
  // result not guaranteed to last long enough to be used!
  // Would prefer to panic but even printing is chancy here:
  // everything, including cprintf, calls cpu, at least indirectly
  // through acquire and release.
  if(read_eflags()&FL_IF){
  100c35:	f6 c4 02             	test   $0x2,%ah
  100c38:	74 12                	je     100c4c <cpu+0x1c>
    static int n;
    if(n++ == 0)
  100c3a:	a1 14 88 10 00       	mov    0x108814,%eax
  100c3f:	8d 50 01             	lea    0x1(%eax),%edx
  100c42:	85 c0                	test   %eax,%eax
  100c44:	89 15 14 88 10 00    	mov    %edx,0x108814
  100c4a:	74 1c                	je     100c68 <cpu+0x38>
      cprintf("cpu called from %x with interrupts enabled\n",
        ((uint*)read_ebp())[1]);
  }

  if(lapic)
  100c4c:	8b 15 20 89 10 00    	mov    0x108920,%edx
    return lapic[ID]>>24;
  return 0;
  100c52:	31 c0                	xor    %eax,%eax
    if(n++ == 0)
      cprintf("cpu called from %x with interrupts enabled\n",
        ((uint*)read_ebp())[1]);
  }

  if(lapic)
  100c54:	85 d2                	test   %edx,%edx
  100c56:	74 06                	je     100c5e <cpu+0x2e>
    return lapic[ID]>>24;
  100c58:	8b 42 20             	mov    0x20(%edx),%eax
  100c5b:	c1 e8 18             	shr    $0x18,%eax
  return 0;
}
  100c5e:	83 c4 1c             	add    $0x1c,%esp
  100c61:	c3                   	ret    
  100c62:	8d b6 00 00 00 00    	lea    0x0(%esi),%esi
static inline uint
read_ebp(void)
{
  uint ebp;

  asm volatile("movl %%ebp, %0" : "=a" (ebp));
  100c68:	89 e8                	mov    %ebp,%eax
  // everything, including cprintf, calls cpu, at least indirectly
  // through acquire and release.
  if(read_eflags()&FL_IF){
    static int n;
    if(n++ == 0)
      cprintf("cpu called from %x with interrupts enabled\n",
  100c6a:	8b 40 04             	mov    0x4(%eax),%eax
  100c6d:	c7 04 24 d0 5f 10 00 	movl   $0x105fd0,(%esp)
  100c74:	89 44 24 04          	mov    %eax,0x4(%esp)
  100c78:	e8 a3 fa ff ff       	call   100720 <cprintf>
  100c7d:	eb cd                	jmp    100c4c <cpu+0x1c>
  100c7f:	90                   	nop

00100c80 <lapic_eoi>:

// Acknowledge interrupt.
void
lapic_eoi(void)
{
  if(lapic)
  100c80:	a1 20 89 10 00       	mov    0x108920,%eax
  100c85:	85 c0                	test   %eax,%eax
  100c87:	74 0d                	je     100c96 <lapic_eoi+0x16>
volatile uint *lapic;  // Initialized in mp.c

static void
lapicw(int index, int value)
{
  lapic[index] = value;
  100c89:	c7 80 b0 00 00 00 00 	movl   $0x0,0xb0(%eax)
  100c90:	00 00 00 
  lapic[ID];  // wait for write to finish, by reading
  100c93:	8b 40 20             	mov    0x20(%eax),%eax
  100c96:	f3 c3                	repz ret 
  100c98:	90                   	nop
  100c99:	8d b4 26 00 00 00 00 	lea    0x0(%esi,%eiz,1),%esi

00100ca0 <lapic_startap>:

// Start additional processor running bootstrap code at addr.
// See Appendix B of MultiProcessor Specification.
void
lapic_startap(uchar apicid, uint addr)
{
  100ca0:	57                   	push   %edi


static inline void
outb(ushort port, uchar data)
{
  asm volatile("out %0,%1" : : "a" (data), "d" (port));
  100ca1:	ba 70 00 00 00       	mov    $0x70,%edx
  100ca6:	56                   	push   %esi
  100ca7:	b8 0f 00 00 00       	mov    $0xf,%eax
  100cac:	53                   	push   %ebx
  100cad:	83 ec 10             	sub    $0x10,%esp
  100cb0:	8b 4c 24 24          	mov    0x24(%esp),%ecx
  100cb4:	0f b6 5c 24 20       	movzbl 0x20(%esp),%ebx
  100cb9:	ee                   	out    %al,(%dx)
  100cba:	b8 0a 00 00 00       	mov    $0xa,%eax
  100cbf:	b2 71                	mov    $0x71,%dl
  100cc1:	ee                   	out    %al,(%dx)
volatile uint *lapic;  // Initialized in mp.c

static void
lapicw(int index, int value)
{
  lapic[index] = value;
  100cc2:	8b 35 20 89 10 00    	mov    0x108920,%esi
  // the AP startup code prior to the [universal startup algorithm]."
  outb(IO_RTC, 0xF);  // offset 0xF is shutdown code
  outb(IO_RTC+1, 0x0A);
  wrv = (ushort*)(0x40<<4 | 0x67);  // Warm reset vector
  wrv[0] = 0;
  wrv[1] = addr >> 4;
  100cc8:	89 c8                	mov    %ecx,%eax
  100cca:	c1 e8 04             	shr    $0x4,%eax

  // "Universal startup algorithm."
  // Send INIT (level-triggered) interrupt to reset other CPU.
  lapicw(ICRHI, apicid<<24);
  100ccd:	c1 e3 18             	shl    $0x18,%ebx
  // the AP startup code prior to the [universal startup algorithm]."
  outb(IO_RTC, 0xF);  // offset 0xF is shutdown code
  outb(IO_RTC+1, 0x0A);
  wrv = (ushort*)(0x40<<4 | 0x67);  // Warm reset vector
  wrv[0] = 0;
  wrv[1] = addr >> 4;
  100cd0:	66 a3 69 04 00 00    	mov    %ax,0x469
  // and the warm reset vector (DWORD based at 40:67) to point at
  // the AP startup code prior to the [universal startup algorithm]."
  outb(IO_RTC, 0xF);  // offset 0xF is shutdown code
  outb(IO_RTC+1, 0x0A);
  wrv = (ushort*)(0x40<<4 | 0x67);  // Warm reset vector
  wrv[0] = 0;
  100cd6:	66 c7 05 67 04 00 00 	movw   $0x0,0x467
  100cdd:	00 00 
volatile uint *lapic;  // Initialized in mp.c

static void
lapicw(int index, int value)
{
  lapic[index] = value;
  100cdf:	89 9e 10 03 00 00    	mov    %ebx,0x310(%esi)
  lapic[ID];  // wait for write to finish, by reading
  100ce5:	8b 46 20             	mov    0x20(%esi),%eax
volatile uint *lapic;  // Initialized in mp.c

static void
lapicw(int index, int value)
{
  lapic[index] = value;
  100ce8:	c7 86 00 03 00 00 00 	movl   $0xc500,0x300(%esi)
  100cef:	c5 00 00 
  lapic[ID];  // wait for write to finish, by reading
  100cf2:	8b 46 20             	mov    0x20(%esi),%eax
// Spin for a given number of microseconds.
// On real hardware would want to tune this dynamically.
static void
microdelay(int us)
{
  volatile int j = 0;
  100cf5:	b8 c8 00 00 00       	mov    $0xc8,%eax
  100cfa:	c7 44 24 0c 00 00 00 	movl   $0x0,0xc(%esp)
  100d01:	00 
  100d02:	eb 09                	jmp    100d0d <lapic_startap+0x6d>
  100d04:	8d 74 26 00          	lea    0x0(%esi,%eiz,1),%esi

  while(us-- > 0)
  100d08:	83 e8 01             	sub    $0x1,%eax
  100d0b:	74 30                	je     100d3d <lapic_startap+0x9d>
    for(j=0; j<10000; j++);
  100d0d:	c7 44 24 0c 00 00 00 	movl   $0x0,0xc(%esp)
  100d14:	00 
  100d15:	8b 54 24 0c          	mov    0xc(%esp),%edx
  100d19:	81 fa 0f 27 00 00    	cmp    $0x270f,%edx
  100d1f:	7f e7                	jg     100d08 <lapic_startap+0x68>
  100d21:	8b 54 24 0c          	mov    0xc(%esp),%edx
  100d25:	83 c2 01             	add    $0x1,%edx
  100d28:	89 54 24 0c          	mov    %edx,0xc(%esp)
  100d2c:	8b 54 24 0c          	mov    0xc(%esp),%edx
  100d30:	81 fa 0f 27 00 00    	cmp    $0x270f,%edx
  100d36:	7e e9                	jle    100d21 <lapic_startap+0x81>
static void
microdelay(int us)
{
  volatile int j = 0;

  while(us-- > 0)
  100d38:	83 e8 01             	sub    $0x1,%eax
  100d3b:	75 d0                	jne    100d0d <lapic_startap+0x6d>
volatile uint *lapic;  // Initialized in mp.c

static void
lapicw(int index, int value)
{
  lapic[index] = value;
  100d3d:	c7 86 00 03 00 00 00 	movl   $0x8500,0x300(%esi)
  100d44:	85 00 00 
  lapic[ID];  // wait for write to finish, by reading
  100d47:	8b 46 20             	mov    0x20(%esi),%eax
// Spin for a given number of microseconds.
// On real hardware would want to tune this dynamically.
static void
microdelay(int us)
{
  volatile int j = 0;
  100d4a:	b8 64 00 00 00       	mov    $0x64,%eax
  100d4f:	c7 44 24 0c 00 00 00 	movl   $0x0,0xc(%esp)
  100d56:	00 
  100d57:	eb 0c                	jmp    100d65 <lapic_startap+0xc5>
  100d59:	8d b4 26 00 00 00 00 	lea    0x0(%esi,%eiz,1),%esi

  while(us-- > 0)
  100d60:	83 e8 01             	sub    $0x1,%eax
  100d63:	74 30                	je     100d95 <lapic_startap+0xf5>
    for(j=0; j<10000; j++);
  100d65:	c7 44 24 0c 00 00 00 	movl   $0x0,0xc(%esp)
  100d6c:	00 
  100d6d:	8b 54 24 0c          	mov    0xc(%esp),%edx
  100d71:	81 fa 0f 27 00 00    	cmp    $0x270f,%edx
  100d77:	7f e7                	jg     100d60 <lapic_startap+0xc0>
  100d79:	8b 54 24 0c          	mov    0xc(%esp),%edx
  100d7d:	83 c2 01             	add    $0x1,%edx
  100d80:	89 54 24 0c          	mov    %edx,0xc(%esp)
  100d84:	8b 54 24 0c          	mov    0xc(%esp),%edx
  100d88:	81 fa 0f 27 00 00    	cmp    $0x270f,%edx
  100d8e:	7e e9                	jle    100d79 <lapic_startap+0xd9>
static void
microdelay(int us)
{
  volatile int j = 0;

  while(us-- > 0)
  100d90:	83 e8 01             	sub    $0x1,%eax
  100d93:	75 d0                	jne    100d65 <lapic_startap+0xc5>
  100d95:	c1 e9 0c             	shr    $0xc,%ecx
  100d98:	bf 02 00 00 00       	mov    $0x2,%edi
  100d9d:	80 cd 06             	or     $0x6,%ch
volatile uint *lapic;  // Initialized in mp.c

static void
lapicw(int index, int value)
{
  lapic[index] = value;
  100da0:	89 9e 10 03 00 00    	mov    %ebx,0x310(%esi)
  lapic[ID];  // wait for write to finish, by reading
  100da6:	8b 46 20             	mov    0x20(%esi),%eax
volatile uint *lapic;  // Initialized in mp.c

static void
lapicw(int index, int value)
{
  lapic[index] = value;
  100da9:	89 8e 00 03 00 00    	mov    %ecx,0x300(%esi)
  lapic[ID];  // wait for write to finish, by reading
  100daf:	8b 46 20             	mov    0x20(%esi),%eax
// Spin for a given number of microseconds.
// On real hardware would want to tune this dynamically.
static void
microdelay(int us)
{
  volatile int j = 0;
  100db2:	b8 c8 00 00 00       	mov    $0xc8,%eax
  100db7:	c7 44 24 0c 00 00 00 	movl   $0x0,0xc(%esp)
  100dbe:	00 
  100dbf:	eb 0c                	jmp    100dcd <lapic_startap+0x12d>
  100dc1:	8d b4 26 00 00 00 00 	lea    0x0(%esi,%eiz,1),%esi

  while(us-- > 0)
  100dc8:	83 e8 01             	sub    $0x1,%eax
  100dcb:	74 33                	je     100e00 <lapic_startap+0x160>
    for(j=0; j<10000; j++);
  100dcd:	c7 44 24 0c 00 00 00 	movl   $0x0,0xc(%esp)
  100dd4:	00 
  100dd5:	8b 54 24 0c          	mov    0xc(%esp),%edx
  100dd9:	81 fa 0f 27 00 00    	cmp    $0x270f,%edx
  100ddf:	7f e7                	jg     100dc8 <lapic_startap+0x128>
  100de1:	8b 54 24 0c          	mov    0xc(%esp),%edx
  100de5:	83 c2 01             	add    $0x1,%edx
  100de8:	89 54 24 0c          	mov    %edx,0xc(%esp)
  100dec:	8b 54 24 0c          	mov    0xc(%esp),%edx
  100df0:	81 fa 0f 27 00 00    	cmp    $0x270f,%edx
  100df6:	7e e9                	jle    100de1 <lapic_startap+0x141>
static void
microdelay(int us)
{
  volatile int j = 0;

  while(us-- > 0)
  100df8:	83 e8 01             	sub    $0x1,%eax
  100dfb:	75 d0                	jne    100dcd <lapic_startap+0x12d>
  100dfd:	8d 76 00             	lea    0x0(%esi),%esi
  // Send startup IPI (twice!) to enter bootstrap code.
  // Regular hardware is supposed to only accept a STARTUP
  // when it is in the halted state due to an INIT.  So the second
  // should be ignored, but it is part of the official Intel algorithm.
  // Bochs complains about the second one.  Too bad for Bochs.
  for(i = 0; i < 2; i++){
  100e00:	83 ef 01             	sub    $0x1,%edi
  100e03:	75 9b                	jne    100da0 <lapic_startap+0x100>
    lapicw(ICRHI, apicid<<24);
    lapicw(ICRLO, STARTUP | (addr>>12));
    microdelay(200);
  }
}
  100e05:	83 c4 10             	add    $0x10,%esp
  100e08:	5b                   	pop    %ebx
  100e09:	5e                   	pop    %esi
  100e0a:	5f                   	pop    %edi
  100e0b:	c3                   	ret    
  100e0c:	90                   	nop
  100e0d:	90                   	nop
  100e0e:	90                   	nop
  100e0f:	90                   	nop

00100e10 <memset>:

#include "type.h"

void*
memset(void *dst, uchar c, uint n)
{
  100e10:	53                   	push   %ebx
  100e11:	8b 54 24 10          	mov    0x10(%esp),%edx
  100e15:	8b 44 24 08          	mov    0x8(%esp),%eax
  100e19:	8b 5c 24 0c          	mov    0xc(%esp),%ebx
  char *d;

  d = (char*)dst;
  while(n-- > 0)
  100e1d:	85 d2                	test   %edx,%edx
  100e1f:	74 11                	je     100e32 <memset+0x22>
void*
memset(void *dst, uchar c, uint n)
{
  char *d;

  d = (char*)dst;
  100e21:	89 c1                	mov    %eax,%ecx
  100e23:	90                   	nop
  100e24:	8d 74 26 00          	lea    0x0(%esi,%eiz,1),%esi
  while(n-- > 0)
    *d++ = c;
  100e28:	88 19                	mov    %bl,(%ecx)
  100e2a:	83 c1 01             	add    $0x1,%ecx
memset(void *dst, uchar c, uint n)
{
  char *d;

  d = (char*)dst;
  while(n-- > 0)
  100e2d:	83 ea 01             	sub    $0x1,%edx
  100e30:	75 f6                	jne    100e28 <memset+0x18>
    *d++ = c;

  return dst;
}
  100e32:	5b                   	pop    %ebx
  100e33:	c3                   	ret    
  100e34:	8d b6 00 00 00 00    	lea    0x0(%esi),%esi
  100e3a:	8d bf 00 00 00 00    	lea    0x0(%edi),%edi

00100e40 <memcmp>:

int
memcmp(const void *v1, const void *v2, uint n)
{
  100e40:	57                   	push   %edi
    if(*s1 != *s2)
      return *s1 - *s2;
    s1++, s2++;
  }

  return 0;
  100e41:	31 c0                	xor    %eax,%eax
  return dst;
}

int
memcmp(const void *v1, const void *v2, uint n)
{
  100e43:	56                   	push   %esi
  100e44:	53                   	push   %ebx
  100e45:	8b 7c 24 18          	mov    0x18(%esp),%edi
  100e49:	8b 5c 24 10          	mov    0x10(%esp),%ebx
  100e4d:	8b 74 24 14          	mov    0x14(%esp),%esi
  const uchar *s1, *s2;

  s1 = v1;
  s2 = v2;
  while(n-- > 0){
  100e51:	85 ff                	test   %edi,%edi
  100e53:	74 29                	je     100e7e <memcmp+0x3e>
    if(*s1 != *s2)
  100e55:	0f b6 03             	movzbl (%ebx),%eax
{
  const uchar *s1, *s2;

  s1 = v1;
  s2 = v2;
  while(n-- > 0){
  100e58:	83 ef 01             	sub    $0x1,%edi
  100e5b:	31 d2                	xor    %edx,%edx
    if(*s1 != *s2)
  100e5d:	0f b6 0e             	movzbl (%esi),%ecx
  100e60:	38 c8                	cmp    %cl,%al
  100e62:	74 14                	je     100e78 <memcmp+0x38>
  100e64:	eb 22                	jmp    100e88 <memcmp+0x48>
  100e66:	66 90                	xchg   %ax,%ax
  100e68:	0f b6 44 13 01       	movzbl 0x1(%ebx,%edx,1),%eax
  100e6d:	83 c2 01             	add    $0x1,%edx
  100e70:	0f b6 0c 16          	movzbl (%esi,%edx,1),%ecx
  100e74:	38 c8                	cmp    %cl,%al
  100e76:	75 10                	jne    100e88 <memcmp+0x48>
{
  const uchar *s1, *s2;

  s1 = v1;
  s2 = v2;
  while(n-- > 0){
  100e78:	39 d7                	cmp    %edx,%edi
  100e7a:	75 ec                	jne    100e68 <memcmp+0x28>
    if(*s1 != *s2)
      return *s1 - *s2;
    s1++, s2++;
  }

  return 0;
  100e7c:	31 c0                	xor    %eax,%eax
}
  100e7e:	5b                   	pop    %ebx
  100e7f:	5e                   	pop    %esi
  100e80:	5f                   	pop    %edi
  100e81:	c3                   	ret    
  100e82:	8d b6 00 00 00 00    	lea    0x0(%esi),%esi

  s1 = v1;
  s2 = v2;
  while(n-- > 0){
    if(*s1 != *s2)
      return *s1 - *s2;
  100e88:	0f b6 c0             	movzbl %al,%eax
  100e8b:	0f b6 c9             	movzbl %cl,%ecx
    s1++, s2++;
  }

  return 0;
}
  100e8e:	5b                   	pop    %ebx

  s1 = v1;
  s2 = v2;
  while(n-- > 0){
    if(*s1 != *s2)
      return *s1 - *s2;
  100e8f:	29 c8                	sub    %ecx,%eax
    s1++, s2++;
  }

  return 0;
}
  100e91:	5e                   	pop    %esi
  100e92:	5f                   	pop    %edi
  100e93:	c3                   	ret    
  100e94:	8d b6 00 00 00 00    	lea    0x0(%esi),%esi
  100e9a:	8d bf 00 00 00 00    	lea    0x0(%edi),%edi

00100ea0 <memmove>:

void*
memmove(void *dst, const void *src, uint n)
{
  100ea0:	57                   	push   %edi
  100ea1:	56                   	push   %esi
  100ea2:	53                   	push   %ebx
  100ea3:	8b 44 24 10          	mov    0x10(%esp),%eax
  100ea7:	8b 74 24 14          	mov    0x14(%esp),%esi
  100eab:	8b 5c 24 18          	mov    0x18(%esp),%ebx
  const char *s;
  char *d;

  s = src;
  d = dst;
  if(s < d && s + n > d){
  100eaf:	39 c6                	cmp    %eax,%esi
  100eb1:	73 35                	jae    100ee8 <memmove+0x48>
  100eb3:	8d 0c 1e             	lea    (%esi,%ebx,1),%ecx
  100eb6:	39 c8                	cmp    %ecx,%eax
  100eb8:	73 2e                	jae    100ee8 <memmove+0x48>
    s += n;
    d += n;
    while(n-- > 0)
  100eba:	85 db                	test   %ebx,%ebx
  100ebc:	74 20                	je     100ede <memmove+0x3e>

  s = src;
  d = dst;
  if(s < d && s + n > d){
    s += n;
    d += n;
  100ebe:	8d 3c 18             	lea    (%eax,%ebx,1),%edi
  100ec1:	89 da                	mov    %ebx,%edx

  return 0;
}

void*
memmove(void *dst, const void *src, uint n)
  100ec3:	f7 db                	neg    %ebx
  100ec5:	8d 34 19             	lea    (%ecx,%ebx,1),%esi
  100ec8:	01 fb                	add    %edi,%ebx
  100eca:	8d b6 00 00 00 00    	lea    0x0(%esi),%esi
  d = dst;
  if(s < d && s + n > d){
    s += n;
    d += n;
    while(n-- > 0)
      *--d = *--s;
  100ed0:	0f b6 4c 16 ff       	movzbl -0x1(%esi,%edx,1),%ecx
  100ed5:	88 4c 13 ff          	mov    %cl,-0x1(%ebx,%edx,1)
  s = src;
  d = dst;
  if(s < d && s + n > d){
    s += n;
    d += n;
    while(n-- > 0)
  100ed9:	83 ea 01             	sub    $0x1,%edx
  100edc:	75 f2                	jne    100ed0 <memmove+0x30>
  } else
    while(n-- > 0)
      *d++ = *s++;

  return dst;
}
  100ede:	5b                   	pop    %ebx
  100edf:	5e                   	pop    %esi
  100ee0:	5f                   	pop    %edi
  100ee1:	c3                   	ret    
  100ee2:	8d b6 00 00 00 00    	lea    0x0(%esi),%esi
    s += n;
    d += n;
    while(n-- > 0)
      *--d = *--s;
  } else
    while(n-- > 0)
  100ee8:	31 d2                	xor    %edx,%edx
  100eea:	85 db                	test   %ebx,%ebx
  100eec:	74 f0                	je     100ede <memmove+0x3e>
  100eee:	66 90                	xchg   %ax,%ax
      *d++ = *s++;
  100ef0:	0f b6 0c 16          	movzbl (%esi,%edx,1),%ecx
  100ef4:	88 0c 10             	mov    %cl,(%eax,%edx,1)
  100ef7:	83 c2 01             	add    $0x1,%edx
    s += n;
    d += n;
    while(n-- > 0)
      *--d = *--s;
  } else
    while(n-- > 0)
  100efa:	39 d3                	cmp    %edx,%ebx
  100efc:	75 f2                	jne    100ef0 <memmove+0x50>
      *d++ = *s++;

  return dst;
}
  100efe:	5b                   	pop    %ebx
  100eff:	5e                   	pop    %esi
  100f00:	5f                   	pop    %edi
  100f01:	c3                   	ret    
  100f02:	8d b4 26 00 00 00 00 	lea    0x0(%esi,%eiz,1),%esi
  100f09:	8d bc 27 00 00 00 00 	lea    0x0(%edi,%eiz,1),%edi

00100f10 <strncmp>:

int
strncmp(const char *p, const char *q, uint n)
{
  100f10:	55                   	push   %ebp
  while(n > 0 && *p && *p == *q)
    n--, p++, q++;
  if(n == 0)
    return 0;
  100f11:	31 c0                	xor    %eax,%eax
  return dst;
}

int
strncmp(const char *p, const char *q, uint n)
{
  100f13:	57                   	push   %edi
  100f14:	56                   	push   %esi
  100f15:	53                   	push   %ebx
  100f16:	8b 6c 24 1c          	mov    0x1c(%esp),%ebp
  100f1a:	8b 4c 24 14          	mov    0x14(%esp),%ecx
  100f1e:	8b 5c 24 18          	mov    0x18(%esp),%ebx
  while(n > 0 && *p && *p == *q)
  100f22:	85 ed                	test   %ebp,%ebp
  100f24:	74 32                	je     100f58 <strncmp+0x48>
  100f26:	0f b6 01             	movzbl (%ecx),%eax
  100f29:	0f b6 33             	movzbl (%ebx),%esi
  100f2c:	84 c0                	test   %al,%al
  100f2e:	74 30                	je     100f60 <strncmp+0x50>
  100f30:	89 f2                	mov    %esi,%edx
  100f32:	38 d0                	cmp    %dl,%al
  100f34:	74 1b                	je     100f51 <strncmp+0x41>
  100f36:	eb 28                	jmp    100f60 <strncmp+0x50>
    n--, p++, q++;
  100f38:	83 c1 01             	add    $0x1,%ecx
}

int
strncmp(const char *p, const char *q, uint n)
{
  while(n > 0 && *p && *p == *q)
  100f3b:	0f b6 73 01          	movzbl 0x1(%ebx),%esi
  100f3f:	0f b6 01             	movzbl (%ecx),%eax
    n--, p++, q++;
  100f42:	8d 7b 01             	lea    0x1(%ebx),%edi
}

int
strncmp(const char *p, const char *q, uint n)
{
  while(n > 0 && *p && *p == *q)
  100f45:	84 c0                	test   %al,%al
  100f47:	74 17                	je     100f60 <strncmp+0x50>
  100f49:	89 f2                	mov    %esi,%edx
  100f4b:	38 d0                	cmp    %dl,%al
  100f4d:	75 11                	jne    100f60 <strncmp+0x50>
    n--, p++, q++;
  100f4f:	89 fb                	mov    %edi,%ebx
}

int
strncmp(const char *p, const char *q, uint n)
{
  while(n > 0 && *p && *p == *q)
  100f51:	83 ed 01             	sub    $0x1,%ebp
  100f54:	75 e2                	jne    100f38 <strncmp+0x28>
    n--, p++, q++;
  if(n == 0)
    return 0;
  100f56:	31 c0                	xor    %eax,%eax
  return (uchar)*p - (uchar)*q;
}
  100f58:	5b                   	pop    %ebx
  100f59:	5e                   	pop    %esi
  100f5a:	5f                   	pop    %edi
  100f5b:	5d                   	pop    %ebp
  100f5c:	c3                   	ret    
  100f5d:	8d 76 00             	lea    0x0(%esi),%esi
{
  while(n > 0 && *p && *p == *q)
    n--, p++, q++;
  if(n == 0)
    return 0;
  return (uchar)*p - (uchar)*q;
  100f60:	81 e6 ff 00 00 00    	and    $0xff,%esi
  100f66:	0f b6 c0             	movzbl %al,%eax
}
  100f69:	5b                   	pop    %ebx
{
  while(n > 0 && *p && *p == *q)
    n--, p++, q++;
  if(n == 0)
    return 0;
  return (uchar)*p - (uchar)*q;
  100f6a:	29 f0                	sub    %esi,%eax
}
  100f6c:	5e                   	pop    %esi
  100f6d:	5f                   	pop    %edi
  100f6e:	5d                   	pop    %ebp
  100f6f:	c3                   	ret    

00100f70 <strncpy>:

char*
strncpy(char *s, const char *t, int n)
{
  100f70:	57                   	push   %edi
  100f71:	56                   	push   %esi
  100f72:	53                   	push   %ebx
  100f73:	8b 7c 24 10          	mov    0x10(%esp),%edi
  100f77:	8b 5c 24 14          	mov    0x14(%esp),%ebx
  100f7b:	8b 4c 24 18          	mov    0x18(%esp),%ecx
  char *os;

  os = s;
  while(n-- > 0 && (*s++ = *t++) != 0)
  100f7f:	89 fa                	mov    %edi,%edx
  100f81:	eb 14                	jmp    100f97 <strncpy+0x27>
  100f83:	90                   	nop
  100f84:	8d 74 26 00          	lea    0x0(%esi,%eiz,1),%esi
  100f88:	0f b6 03             	movzbl (%ebx),%eax
  100f8b:	83 c3 01             	add    $0x1,%ebx
  100f8e:	88 02                	mov    %al,(%edx)
  100f90:	83 c2 01             	add    $0x1,%edx
  100f93:	84 c0                	test   %al,%al
  100f95:	74 0a                	je     100fa1 <strncpy+0x31>
  100f97:	83 e9 01             	sub    $0x1,%ecx
    return 0;
  return (uchar)*p - (uchar)*q;
}

char*
strncpy(char *s, const char *t, int n)
  100f9a:	8d 71 01             	lea    0x1(%ecx),%esi
{
  char *os;

  os = s;
  while(n-- > 0 && (*s++ = *t++) != 0)
  100f9d:	85 f6                	test   %esi,%esi
  100f9f:	7f e7                	jg     100f88 <strncpy+0x18>
    ;
  while(n-- > 0)
  100fa1:	85 c9                	test   %ecx,%ecx
    return 0;
  return (uchar)*p - (uchar)*q;
}

char*
strncpy(char *s, const char *t, int n)
  100fa3:	8d 1c 0a             	lea    (%edx,%ecx,1),%ebx
  char *os;

  os = s;
  while(n-- > 0 && (*s++ = *t++) != 0)
    ;
  while(n-- > 0)
  100fa6:	7e 0a                	jle    100fb2 <strncpy+0x42>
    *s++ = 0;
  100fa8:	c6 02 00             	movb   $0x0,(%edx)
  100fab:	83 c2 01             	add    $0x1,%edx
  char *os;

  os = s;
  while(n-- > 0 && (*s++ = *t++) != 0)
    ;
  while(n-- > 0)
  100fae:	39 da                	cmp    %ebx,%edx
  100fb0:	75 f6                	jne    100fa8 <strncpy+0x38>
    *s++ = 0;
  return os;
}
  100fb2:	89 f8                	mov    %edi,%eax
  100fb4:	5b                   	pop    %ebx
  100fb5:	5e                   	pop    %esi
  100fb6:	5f                   	pop    %edi
  100fb7:	c3                   	ret    
  100fb8:	90                   	nop
  100fb9:	8d b4 26 00 00 00 00 	lea    0x0(%esi,%eiz,1),%esi

00100fc0 <safestrcpy>:

// Like strncpy but guaranteed to NUL-terminate.
char*
safestrcpy(char *s, const char *t, int n)
{
  100fc0:	56                   	push   %esi
  100fc1:	53                   	push   %ebx
  100fc2:	8b 54 24 14          	mov    0x14(%esp),%edx
  100fc6:	8b 74 24 0c          	mov    0xc(%esp),%esi
  100fca:	8b 5c 24 10          	mov    0x10(%esp),%ebx
  char *os;

  os = s;
  if(n <= 0)
  100fce:	85 d2                	test   %edx,%edx
  100fd0:	7e 1d                	jle    100fef <safestrcpy+0x2f>
  100fd2:	89 f1                	mov    %esi,%ecx
  100fd4:	8d 74 26 00          	lea    0x0(%esi,%eiz,1),%esi
    return os;
  while(--n > 0 && (*s++ = *t++) != 0)
  100fd8:	83 ea 01             	sub    $0x1,%edx
  100fdb:	74 0f                	je     100fec <safestrcpy+0x2c>
  100fdd:	0f b6 03             	movzbl (%ebx),%eax
  100fe0:	83 c3 01             	add    $0x1,%ebx
  100fe3:	88 01                	mov    %al,(%ecx)
  100fe5:	83 c1 01             	add    $0x1,%ecx
  100fe8:	84 c0                	test   %al,%al
  100fea:	75 ec                	jne    100fd8 <safestrcpy+0x18>
    ;
  *s = 0;
  100fec:	c6 01 00             	movb   $0x0,(%ecx)
  return os;
}
  100fef:	89 f0                	mov    %esi,%eax
  100ff1:	5b                   	pop    %ebx
  100ff2:	5e                   	pop    %esi
  100ff3:	c3                   	ret    
  100ff4:	8d b6 00 00 00 00    	lea    0x0(%esi),%esi
  100ffa:	8d bf 00 00 00 00    	lea    0x0(%edi),%edi

00101000 <strlen>:

int
strlen(const char *s)
{
  101000:	8b 54 24 04          	mov    0x4(%esp),%edx
  int n;

  for(n = 0; s[n]; n++)
  101004:	31 c0                	xor    %eax,%eax
  101006:	80 3a 00             	cmpb   $0x0,(%edx)
  101009:	74 0e                	je     101019 <strlen+0x19>
  10100b:	90                   	nop
  10100c:	8d 74 26 00          	lea    0x0(%esi,%eiz,1),%esi
  101010:	83 c0 01             	add    $0x1,%eax
  101013:	80 3c 02 00          	cmpb   $0x0,(%edx,%eax,1)
  101017:	75 f7                	jne    101010 <strlen+0x10>
    ;
  return n;
}
  101019:	f3 c3                	repz ret 
  10101b:	90                   	nop
  10101c:	90                   	nop
  10101d:	90                   	nop
  10101e:	90                   	nop
  10101f:	90                   	nop

00101020 <pinit>:
extern void forkret(void);
extern void forkret1(struct trapframe*);

void
pinit(void)
{
  101020:	83 ec 1c             	sub    $0x1c,%esp
  initlock(&proc_table_lock, "proc_table_lock");
  101023:	c7 44 24 04 2f 60 10 	movl   $0x10602f,0x4(%esp)
  10102a:	00 
  10102b:	c7 04 24 40 d5 10 00 	movl   $0x10d540,(%esp)
  101032:	e8 49 f1 ff ff       	call   100180 <initlock>
}
  101037:	83 c4 1c             	add    $0x1c,%esp
  10103a:	c3                   	ret    
  10103b:	90                   	nop
  10103c:	8d 74 26 00          	lea    0x0(%esi,%eiz,1),%esi

00101040 <setupsegs>:

// Set up CPU's segment descriptors and task state for a given process.
// If p==0, set up for "idle" state for when scheduler() is running.
void
setupsegs(struct proc *p)
{
  101040:	55                   	push   %ebp
  101041:	57                   	push   %edi
  101042:	56                   	push   %esi
  101043:	53                   	push   %ebx
  101044:	83 ec 2c             	sub    $0x2c,%esp
  101047:	8b 5c 24 40          	mov    0x40(%esp),%ebx
  struct cpu *c;

  pushcli();
  10104b:	e8 d0 f1 ff ff       	call   100220 <pushcli>
  c = &cpus[cpu()];
  101050:	e8 db fb ff ff       	call   100c30 <cpu>
  101055:	69 c0 cc 00 00 00    	imul   $0xcc,%eax,%eax
  10105b:	05 e0 d5 10 00       	add    $0x10d5e0,%eax
  c->ts.ss0 = SEGMENT_KERNEL_DATA << 3;
  if(p)
  101060:	85 db                	test   %ebx,%ebx
{
  struct cpu *c;

  pushcli();
  c = &cpus[cpu()];
  c->ts.ss0 = SEGMENT_KERNEL_DATA << 3;
  101062:	66 c7 40 30 10 00    	movw   $0x10,0x30(%eax)
  if(p)
  101068:	0f 84 aa 01 00 00    	je     101218 <setupsegs+0x1d8>
    c->ts.esp0 = (uint)(p->kstack + KSTACKSIZE);
  10106e:	8b 53 08             	mov    0x8(%ebx),%edx
  101071:	81 c2 00 10 00 00    	add    $0x1000,%edx
  101077:	89 50 2c             	mov    %edx,0x2c(%eax)
    c->ts.esp0 = 0xffffffff;

  c->gdt[0] = SEG_NULL;
  c->gdt[SEGMENT_KERNEL_CODE] = SEG(STA_X|STA_R, 0, 0x100000 + 64*1024-1, 0);
  c->gdt[SEGMENT_KERNEL_DATA] = SEG(STA_W, 0, 0xffffffff, 0);
  c->gdt[SEGMENT_TSS] = SEG16(STS_T32A, (uint)&c->ts, sizeof(c->ts)-1, 0);
  10107a:	8d 50 28             	lea    0x28(%eax),%edx
  10107d:	89 d1                	mov    %edx,%ecx
  10107f:	c1 e9 10             	shr    $0x10,%ecx
  101082:	66 89 90 ba 00 00 00 	mov    %dx,0xba(%eax)
  101089:	c1 ea 18             	shr    $0x18,%edx
  c->gdt[SEGMENT_TSS].s = 0;
  if(p){
  10108c:	85 db                	test   %ebx,%ebx
  if(p)
    c->ts.esp0 = (uint)(p->kstack + KSTACKSIZE);
  else
    c->ts.esp0 = 0xffffffff;

  c->gdt[0] = SEG_NULL;
  10108e:	c7 80 90 00 00 00 00 	movl   $0x0,0x90(%eax)
  101095:	00 00 00 
  101098:	c7 80 94 00 00 00 00 	movl   $0x0,0x94(%eax)
  10109f:	00 00 00 
  c->gdt[SEGMENT_KERNEL_CODE] = SEG(STA_X|STA_R, 0, 0x100000 + 64*1024-1, 0);
  1010a2:	66 c7 80 98 00 00 00 	movw   $0x10f,0x98(%eax)
  1010a9:	0f 01 
  1010ab:	66 c7 80 9a 00 00 00 	movw   $0x0,0x9a(%eax)
  1010b2:	00 00 
  1010b4:	c6 80 9c 00 00 00 00 	movb   $0x0,0x9c(%eax)
  1010bb:	c6 80 9d 00 00 00 9a 	movb   $0x9a,0x9d(%eax)
  1010c2:	c6 80 9e 00 00 00 c0 	movb   $0xc0,0x9e(%eax)
  1010c9:	c6 80 9f 00 00 00 00 	movb   $0x0,0x9f(%eax)
  c->gdt[SEGMENT_KERNEL_DATA] = SEG(STA_W, 0, 0xffffffff, 0);
  1010d0:	66 c7 80 a0 00 00 00 	movw   $0xffff,0xa0(%eax)
  1010d7:	ff ff 
  1010d9:	66 c7 80 a2 00 00 00 	movw   $0x0,0xa2(%eax)
  1010e0:	00 00 
  1010e2:	c6 80 a4 00 00 00 00 	movb   $0x0,0xa4(%eax)
  1010e9:	c6 80 a5 00 00 00 92 	movb   $0x92,0xa5(%eax)
  1010f0:	c6 80 a6 00 00 00 cf 	movb   $0xcf,0xa6(%eax)
  1010f7:	c6 80 a7 00 00 00 00 	movb   $0x0,0xa7(%eax)
  c->gdt[SEGMENT_TSS] = SEG16(STS_T32A, (uint)&c->ts, sizeof(c->ts)-1, 0);
  1010fe:	66 c7 80 b8 00 00 00 	movw   $0x67,0xb8(%eax)
  101105:	67 00 
  101107:	88 88 bc 00 00 00    	mov    %cl,0xbc(%eax)
  10110d:	c6 80 be 00 00 00 40 	movb   $0x40,0xbe(%eax)
  101114:	88 90 bf 00 00 00    	mov    %dl,0xbf(%eax)
  c->gdt[SEGMENT_TSS].s = 0;
  10111a:	c6 80 bd 00 00 00 89 	movb   $0x89,0xbd(%eax)
  if(p){
  101121:	0f 84 c1 00 00 00    	je     1011e8 <setupsegs+0x1a8>
    c->gdt[SEGMENT_USER_CODE] = SEG(STA_X|STA_R, (uint)p->mem, p->sz-1, DPL_USER);
  101127:	8b 13                	mov    (%ebx),%edx
  101129:	8b 6b 04             	mov    0x4(%ebx),%ebp
  10112c:	89 d6                	mov    %edx,%esi
  10112e:	89 d1                	mov    %edx,%ecx
  101130:	c1 ee 10             	shr    $0x10,%esi
  101133:	83 ed 01             	sub    $0x1,%ebp
  101136:	89 f3                	mov    %esi,%ebx
  101138:	89 ef                	mov    %ebp,%edi
  10113a:	88 98 ac 00 00 00    	mov    %bl,0xac(%eax)
  101140:	89 eb                	mov    %ebp,%ebx
  101142:	bd c0 ff ff ff       	mov    $0xffffffc0,%ebp
  101147:	c1 eb 1c             	shr    $0x1c,%ebx
  10114a:	c1 e9 18             	shr    $0x18,%ecx
  10114d:	09 dd                	or     %ebx,%ebp
  10114f:	89 4c 24 0c          	mov    %ecx,0xc(%esp)
  101153:	89 e9                	mov    %ebp,%ecx
    c->gdt[SEGMENT_USER_DATA] = SEG(STA_W, (uint)p->mem, p->sz-1, DPL_USER);
  101155:	89 eb                	mov    %ebp,%ebx
  c->gdt[SEGMENT_KERNEL_CODE] = SEG(STA_X|STA_R, 0, 0x100000 + 64*1024-1, 0);
  c->gdt[SEGMENT_KERNEL_DATA] = SEG(STA_W, 0, 0xffffffff, 0);
  c->gdt[SEGMENT_TSS] = SEG16(STS_T32A, (uint)&c->ts, sizeof(c->ts)-1, 0);
  c->gdt[SEGMENT_TSS].s = 0;
  if(p){
    c->gdt[SEGMENT_USER_CODE] = SEG(STA_X|STA_R, (uint)p->mem, p->sz-1, DPL_USER);
  101157:	c6 80 ad 00 00 00 fa 	movb   $0xfa,0xad(%eax)
  10115e:	c1 ef 0c             	shr    $0xc,%edi
  101161:	88 88 ae 00 00 00    	mov    %cl,0xae(%eax)
  101167:	0f b6 4c 24 0c       	movzbl 0xc(%esp),%ecx
    c->gdt[SEGMENT_USER_DATA] = SEG(STA_W, (uint)p->mem, p->sz-1, DPL_USER);
  10116c:	c6 80 b5 00 00 00 f2 	movb   $0xf2,0xb5(%eax)
  101173:	88 98 b6 00 00 00    	mov    %bl,0xb6(%eax)
  c->gdt[SEGMENT_KERNEL_CODE] = SEG(STA_X|STA_R, 0, 0x100000 + 64*1024-1, 0);
  c->gdt[SEGMENT_KERNEL_DATA] = SEG(STA_W, 0, 0xffffffff, 0);
  c->gdt[SEGMENT_TSS] = SEG16(STS_T32A, (uint)&c->ts, sizeof(c->ts)-1, 0);
  c->gdt[SEGMENT_TSS].s = 0;
  if(p){
    c->gdt[SEGMENT_USER_CODE] = SEG(STA_X|STA_R, (uint)p->mem, p->sz-1, DPL_USER);
  101179:	66 89 90 aa 00 00 00 	mov    %dx,0xaa(%eax)
  101180:	88 88 af 00 00 00    	mov    %cl,0xaf(%eax)
    c->gdt[SEGMENT_USER_DATA] = SEG(STA_W, (uint)p->mem, p->sz-1, DPL_USER);
  101186:	0f b6 4c 24 0c       	movzbl 0xc(%esp),%ecx
  10118b:	66 89 90 b2 00 00 00 	mov    %dx,0xb2(%eax)
  101192:	89 f2                	mov    %esi,%edx
  c->gdt[SEGMENT_KERNEL_CODE] = SEG(STA_X|STA_R, 0, 0x100000 + 64*1024-1, 0);
  c->gdt[SEGMENT_KERNEL_DATA] = SEG(STA_W, 0, 0xffffffff, 0);
  c->gdt[SEGMENT_TSS] = SEG16(STS_T32A, (uint)&c->ts, sizeof(c->ts)-1, 0);
  c->gdt[SEGMENT_TSS].s = 0;
  if(p){
    c->gdt[SEGMENT_USER_CODE] = SEG(STA_X|STA_R, (uint)p->mem, p->sz-1, DPL_USER);
  101194:	66 89 b8 a8 00 00 00 	mov    %di,0xa8(%eax)
    c->gdt[SEGMENT_USER_DATA] = SEG(STA_W, (uint)p->mem, p->sz-1, DPL_USER);
  10119b:	66 89 b8 b0 00 00 00 	mov    %di,0xb0(%eax)
  1011a2:	88 90 b4 00 00 00    	mov    %dl,0xb4(%eax)
  1011a8:	88 88 b7 00 00 00    	mov    %cl,0xb7(%eax)
  } else {
    c->gdt[SEGMENT_USER_CODE] = SEG_NULL;
    c->gdt[SEGMENT_USER_DATA] = SEG_NULL;
  }

  lgdt(c->gdt, sizeof(c->gdt));
  1011ae:	05 90 00 00 00       	add    $0x90,%eax
static inline void
lgdt(struct segdesc *p, int size)
{
  volatile ushort pd[3];

  pd[0] = size-1;
  1011b3:	66 c7 44 24 1a 2f 00 	movw   $0x2f,0x1a(%esp)
  pd[1] = (uint)p;
  1011ba:	66 89 44 24 1c       	mov    %ax,0x1c(%esp)
  pd[2] = (uint)p >> 16;
  1011bf:	c1 e8 10             	shr    $0x10,%eax
  1011c2:	66 89 44 24 1e       	mov    %ax,0x1e(%esp)

  asm volatile("lgdt (%0)" : : "r" (pd));
  1011c7:	8d 44 24 1a          	lea    0x1a(%esp),%eax
  1011cb:	0f 01 10             	lgdtl  (%eax)
}

static inline void
ltr(ushort sel)
{
  asm volatile("ltr %0" : : "r" (sel));
  1011ce:	b8 28 00 00 00       	mov    $0x28,%eax
  1011d3:	0f 00 d8             	ltr    %ax
  ltr(SEGMENT_TSS << 3);
  popcli();
  1011d6:	e8 05 f1 ff ff       	call   1002e0 <popcli>
}
  1011db:	83 c4 2c             	add    $0x2c,%esp
  1011de:	5b                   	pop    %ebx
  1011df:	5e                   	pop    %esi
  1011e0:	5f                   	pop    %edi
  1011e1:	5d                   	pop    %ebp
  1011e2:	c3                   	ret    
  1011e3:	90                   	nop
  1011e4:	8d 74 26 00          	lea    0x0(%esi,%eiz,1),%esi
  c->gdt[SEGMENT_TSS].s = 0;
  if(p){
    c->gdt[SEGMENT_USER_CODE] = SEG(STA_X|STA_R, (uint)p->mem, p->sz-1, DPL_USER);
    c->gdt[SEGMENT_USER_DATA] = SEG(STA_W, (uint)p->mem, p->sz-1, DPL_USER);
  } else {
    c->gdt[SEGMENT_USER_CODE] = SEG_NULL;
  1011e8:	c7 80 a8 00 00 00 00 	movl   $0x0,0xa8(%eax)
  1011ef:	00 00 00 
  1011f2:	c7 80 ac 00 00 00 00 	movl   $0x0,0xac(%eax)
  1011f9:	00 00 00 
    c->gdt[SEGMENT_USER_DATA] = SEG_NULL;
  1011fc:	c7 80 b0 00 00 00 00 	movl   $0x0,0xb0(%eax)
  101203:	00 00 00 
  101206:	c7 80 b4 00 00 00 00 	movl   $0x0,0xb4(%eax)
  10120d:	00 00 00 
  101210:	eb 9c                	jmp    1011ae <setupsegs+0x16e>
  101212:	8d b6 00 00 00 00    	lea    0x0(%esi),%esi
  c = &cpus[cpu()];
  c->ts.ss0 = SEGMENT_KERNEL_DATA << 3;
  if(p)
    c->ts.esp0 = (uint)(p->kstack + KSTACKSIZE);
  else
    c->ts.esp0 = 0xffffffff;
  101218:	c7 40 2c ff ff ff ff 	movl   $0xffffffff,0x2c(%eax)
  10121f:	e9 56 fe ff ff       	jmp    10107a <setupsegs+0x3a>
  101224:	8d b6 00 00 00 00    	lea    0x0(%esi),%esi
  10122a:	8d bf 00 00 00 00    	lea    0x0(%edi),%edi

00101230 <copyproc>:
// Create a new process copying p as the parent.
// Sets up stack to return as if from system call.
// Caller must set state of returned proc to RUNNABLE.
struct proc*
copyproc(struct proc *p)
{
  101230:	57                   	push   %edi
  101231:	56                   	push   %esi
  101232:	53                   	push   %ebx
  101233:	83 ec 10             	sub    $0x10,%esp
allocproc(void)
{
  int i;
  struct proc *p;

  acquire(&proc_table_lock);
  101236:	c7 04 24 40 d5 10 00 	movl   $0x10d540,(%esp)
// Create a new process copying p as the parent.
// Sets up stack to return as if from system call.
// Caller must set state of returned proc to RUNNABLE.
struct proc*
copyproc(struct proc *p)
{
  10123d:	8b 7c 24 20          	mov    0x20(%esp),%edi
allocproc(void)
{
  int i;
  struct proc *p;

  acquire(&proc_table_lock);
  101241:	e8 2a f0 ff ff       	call   100270 <acquire>
  for(i = 0; i < NPROC; i++){
  101246:	31 c0                	xor    %eax,%eax
  101248:	eb 14                	jmp    10125e <copyproc+0x2e>
  10124a:	8d b6 00 00 00 00    	lea    0x0(%esi),%esi
  101250:	83 c0 01             	add    $0x1,%eax
  101253:	3d 80 00 00 00       	cmp    $0x80,%eax
  101258:	0f 84 12 01 00 00    	je     101370 <copyproc+0x140>
    p = &proc[i];
  10125e:	69 f0 98 00 00 00    	imul   $0x98,%eax,%esi
  101264:	81 c6 40 89 10 00    	add    $0x108940,%esi
    if(p->state == UNUSED){
  10126a:	8b 56 0c             	mov    0xc(%esi),%edx
  10126d:	85 d2                	test   %edx,%edx
  10126f:	75 df                	jne    101250 <copyproc+0x20>
      p->state = EMBRYO;
      p->pid = nextpid++;
  101271:	a1 00 80 10 00       	mov    0x108000,%eax

  acquire(&proc_table_lock);
  for(i = 0; i < NPROC; i++){
    p = &proc[i];
    if(p->state == UNUSED){
      p->state = EMBRYO;
  101276:	c7 46 0c 01 00 00 00 	movl   $0x1,0xc(%esi)
      p->pid = nextpid++;
  10127d:	89 46 10             	mov    %eax,0x10(%esi)
  101280:	83 c0 01             	add    $0x1,%eax
      release(&proc_table_lock);
  101283:	c7 04 24 40 d5 10 00 	movl   $0x10d540,(%esp)
  acquire(&proc_table_lock);
  for(i = 0; i < NPROC; i++){
    p = &proc[i];
    if(p->state == UNUSED){
      p->state = EMBRYO;
      p->pid = nextpid++;
  10128a:	a3 00 80 10 00       	mov    %eax,0x108000
      release(&proc_table_lock);
  10128f:	e8 cc f0 ff ff       	call   100360 <release>
  // Allocate process.
  if((np = allocproc()) == 0)
    return 0;

  // Allocate kernel stack.
  if((np->kstack = kalloc(KSTACKSIZE)) == 0){
  101294:	c7 04 24 00 10 00 00 	movl   $0x1000,(%esp)
  10129b:	e8 a0 0b 00 00       	call   101e40 <kalloc>
  1012a0:	85 c0                	test   %eax,%eax
  1012a2:	89 46 08             	mov    %eax,0x8(%esi)
  1012a5:	0f 84 f6 00 00 00    	je     1013a1 <copyproc+0x171>
    np->state = UNUSED;
    return 0;
  }
  np->tf = (struct trapframe*)(np->kstack + KSTACKSIZE) - 1;
  1012ab:	05 bc 0f 00 00       	add    $0xfbc,%eax

  if(p){  // Copy process state from p.
  1012b0:	85 ff                	test   %edi,%edi
  // Allocate kernel stack.
  if((np->kstack = kalloc(KSTACKSIZE)) == 0){
    np->state = UNUSED;
    return 0;
  }
  np->tf = (struct trapframe*)(np->kstack + KSTACKSIZE) - 1;
  1012b2:	89 86 84 00 00 00    	mov    %eax,0x84(%esi)

  if(p){  // Copy process state from p.
  1012b8:	74 78                	je     101332 <copyproc+0x102>
    np->parent = p;
  1012ba:	89 7e 14             	mov    %edi,0x14(%esi)
    memmove(np->tf, p->tf, sizeof(*np->tf));
  1012bd:	c7 44 24 08 44 00 00 	movl   $0x44,0x8(%esp)
  1012c4:	00 
  1012c5:	8b 97 84 00 00 00    	mov    0x84(%edi),%edx
  1012cb:	89 04 24             	mov    %eax,(%esp)
  1012ce:	89 54 24 04          	mov    %edx,0x4(%esp)
  1012d2:	e8 c9 fb ff ff       	call   100ea0 <memmove>

    np->sz = p->sz;
  1012d7:	8b 47 04             	mov    0x4(%edi),%eax
  1012da:	89 46 04             	mov    %eax,0x4(%esi)
    if((np->mem = kalloc(np->sz)) == 0){
  1012dd:	89 04 24             	mov    %eax,(%esp)
  1012e0:	e8 5b 0b 00 00       	call   101e40 <kalloc>
  1012e5:	85 c0                	test   %eax,%eax
  1012e7:	89 06                	mov    %eax,(%esi)
  1012e9:	0f 84 98 00 00 00    	je     101387 <copyproc+0x157>
      kfree(np->kstack, KSTACKSIZE);
      np->kstack = 0;
      np->state = UNUSED;
      return 0;
    }
    memmove(np->mem, p->mem, np->sz);
  1012ef:	8b 56 04             	mov    0x4(%esi),%edx

    for(i = 0; i < NOFILE; i++)
  1012f2:	31 db                	xor    %ebx,%ebx
      kfree(np->kstack, KSTACKSIZE);
      np->kstack = 0;
      np->state = UNUSED;
      return 0;
    }
    memmove(np->mem, p->mem, np->sz);
  1012f4:	89 54 24 08          	mov    %edx,0x8(%esp)
  1012f8:	8b 17                	mov    (%edi),%edx
  1012fa:	89 04 24             	mov    %eax,(%esp)
  1012fd:	89 54 24 04          	mov    %edx,0x4(%esp)
  101301:	e8 9a fb ff ff       	call   100ea0 <memmove>
  101306:	66 90                	xchg   %ax,%ax

    for(i = 0; i < NOFILE; i++)
      if(p->ofile[i])
  101308:	8b 44 9f 20          	mov    0x20(%edi,%ebx,4),%eax
  10130c:	85 c0                	test   %eax,%eax
  10130e:	74 0c                	je     10131c <copyproc+0xec>
        np->ofile[i] = filedup(p->ofile[i]);
  101310:	89 04 24             	mov    %eax,(%esp)
  101313:	e8 08 0f 00 00       	call   102220 <filedup>
  101318:	89 44 9e 20          	mov    %eax,0x20(%esi,%ebx,4)
      np->state = UNUSED;
      return 0;
    }
    memmove(np->mem, p->mem, np->sz);

    for(i = 0; i < NOFILE; i++)
  10131c:	83 c3 01             	add    $0x1,%ebx
  10131f:	83 fb 10             	cmp    $0x10,%ebx
  101322:	75 e4                	jne    101308 <copyproc+0xd8>
      if(p->ofile[i])
        np->ofile[i] = filedup(p->ofile[i]);
    np->cwd = idup(p->cwd);
  101324:	8b 47 60             	mov    0x60(%edi),%eax
  101327:	89 04 24             	mov    %eax,(%esp)
  10132a:	e8 b1 15 00 00       	call   1028e0 <idup>
  10132f:	89 46 60             	mov    %eax,0x60(%esi)
  }

  // Set up new context to start executing at forkret (see below).
  memset(&np->context, 0, sizeof(np->context));
  101332:	8d 46 64             	lea    0x64(%esi),%eax
  101335:	c7 44 24 08 20 00 00 	movl   $0x20,0x8(%esp)
  10133c:	00 
  10133d:	c7 44 24 04 00 00 00 	movl   $0x0,0x4(%esp)
  101344:	00 
  101345:	89 04 24             	mov    %eax,(%esp)
  101348:	e8 c3 fa ff ff       	call   100e10 <memset>
  np->context.eip = (uint)forkret;
  np->context.esp = (uint)np->tf;
  10134d:	8b 86 84 00 00 00    	mov    0x84(%esi),%eax
    np->cwd = idup(p->cwd);
  }

  // Set up new context to start executing at forkret (see below).
  memset(&np->context, 0, sizeof(np->context));
  np->context.eip = (uint)forkret;
  101353:	c7 46 64 c0 14 10 00 	movl   $0x1014c0,0x64(%esi)
  np->context.esp = (uint)np->tf;
  10135a:	89 46 68             	mov    %eax,0x68(%esi)

  // Clear %eax so that fork system call returns 0 in child.
  np->tf->eax = 0;
  10135d:	c7 40 1c 00 00 00 00 	movl   $0x0,0x1c(%eax)
  return np;
}
  101364:	83 c4 10             	add    $0x10,%esp
  101367:	89 f0                	mov    %esi,%eax
  101369:	5b                   	pop    %ebx
  10136a:	5e                   	pop    %esi
  10136b:	5f                   	pop    %edi
  10136c:	c3                   	ret    
  10136d:	8d 76 00             	lea    0x0(%esi),%esi
      p->pid = nextpid++;
      release(&proc_table_lock);
      return p;
    }
  }
  release(&proc_table_lock);
  101370:	c7 04 24 40 d5 10 00 	movl   $0x10d540,(%esp)
  int i;
  struct proc *np;

  // Allocate process.
  if((np = allocproc()) == 0)
    return 0;
  101377:	31 f6                	xor    %esi,%esi
      p->pid = nextpid++;
      release(&proc_table_lock);
      return p;
    }
  }
  release(&proc_table_lock);
  101379:	e8 e2 ef ff ff       	call   100360 <release>
  np->context.esp = (uint)np->tf;

  // Clear %eax so that fork system call returns 0 in child.
  np->tf->eax = 0;
  return np;
}
  10137e:	83 c4 10             	add    $0x10,%esp
  101381:	89 f0                	mov    %esi,%eax
  101383:	5b                   	pop    %ebx
  101384:	5e                   	pop    %esi
  101385:	5f                   	pop    %edi
  101386:	c3                   	ret    
    np->parent = p;
    memmove(np->tf, p->tf, sizeof(*np->tf));

    np->sz = p->sz;
    if((np->mem = kalloc(np->sz)) == 0){
      kfree(np->kstack, KSTACKSIZE);
  101387:	c7 44 24 04 00 10 00 	movl   $0x1000,0x4(%esp)
  10138e:	00 
  10138f:	8b 46 08             	mov    0x8(%esi),%eax
  101392:	89 04 24             	mov    %eax,(%esp)
  101395:	e8 46 09 00 00       	call   101ce0 <kfree>
      np->kstack = 0;
  10139a:	c7 46 08 00 00 00 00 	movl   $0x0,0x8(%esi)
      np->state = UNUSED;
  1013a1:	c7 46 0c 00 00 00 00 	movl   $0x0,0xc(%esi)
      return 0;
  1013a8:	31 f6                	xor    %esi,%esi
  1013aa:	eb b8                	jmp    101364 <copyproc+0x134>
  1013ac:	8d 74 26 00          	lea    0x0(%esi,%eiz,1),%esi

001013b0 <userinit>:
}

// Set up first user process.
void
userinit(void)
{
  1013b0:	53                   	push   %ebx
  1013b1:	83 ec 18             	sub    $0x18,%esp
  struct proc *p;
  extern uchar _binary_initcode_start[], _binary_initcode_size[];

  p = copyproc(0);
  1013b4:	c7 04 24 00 00 00 00 	movl   $0x0,(%esp)
  1013bb:	e8 70 fe ff ff       	call   101230 <copyproc>
  p->sz = PAGE;
  1013c0:	c7 40 04 00 10 00 00 	movl   $0x1000,0x4(%eax)
userinit(void)
{
  struct proc *p;
  extern uchar _binary_initcode_start[], _binary_initcode_size[];

  p = copyproc(0);
  1013c7:	89 c3                	mov    %eax,%ebx
  p->sz = PAGE;
  p->mem = kalloc(p->sz);
  1013c9:	c7 04 24 00 10 00 00 	movl   $0x1000,(%esp)
  1013d0:	e8 6b 0a 00 00       	call   101e40 <kalloc>
  1013d5:	89 03                	mov    %eax,(%ebx)
  p->cwd = namei("/");
  1013d7:	c7 04 24 fc 5f 10 00 	movl   $0x105ffc,(%esp)
  1013de:	e8 4d 1f 00 00       	call   103330 <namei>
  1013e3:	89 43 60             	mov    %eax,0x60(%ebx)
  memset(p->tf, 0, sizeof(*p->tf));
  1013e6:	c7 44 24 08 44 00 00 	movl   $0x44,0x8(%esp)
  1013ed:	00 
  1013ee:	c7 44 24 04 00 00 00 	movl   $0x0,0x4(%esp)
  1013f5:	00 
  1013f6:	8b 83 84 00 00 00    	mov    0x84(%ebx),%eax
  1013fc:	89 04 24             	mov    %eax,(%esp)
  1013ff:	e8 0c fa ff ff       	call   100e10 <memset>
  p->tf->ss = p->tf->ds;
  p->tf->eflags = FL_IF;
  p->tf->esp = p->sz;

  // Make return address readable; needed for some gcc.
  p->tf->esp -= 4;
  101404:	8b 4b 04             	mov    0x4(%ebx),%ecx
  p = copyproc(0);
  p->sz = PAGE;
  p->mem = kalloc(p->sz);
  p->cwd = namei("/");
  memset(p->tf, 0, sizeof(*p->tf));
  p->tf->cs = (SEGMENT_USER_CODE << 3) | DPL_USER;
  101407:	8b 83 84 00 00 00    	mov    0x84(%ebx),%eax
  p->tf->ss = p->tf->ds;
  p->tf->eflags = FL_IF;
  p->tf->esp = p->sz;

  // Make return address readable; needed for some gcc.
  p->tf->esp -= 4;
  10140d:	8d 51 fc             	lea    -0x4(%ecx),%edx
  101410:	89 50 3c             	mov    %edx,0x3c(%eax)
  *(uint*)(p->mem + p->tf->esp) = 0xefefefef;
  101413:	8b 13                	mov    (%ebx),%edx
  p = copyproc(0);
  p->sz = PAGE;
  p->mem = kalloc(p->sz);
  p->cwd = namei("/");
  memset(p->tf, 0, sizeof(*p->tf));
  p->tf->cs = (SEGMENT_USER_CODE << 3) | DPL_USER;
  101415:	66 c7 40 34 1b 00    	movw   $0x1b,0x34(%eax)
  p->tf->ds = (SEGMENT_USER_DATA << 3) | DPL_USER;
  10141b:	66 c7 40 24 23 00    	movw   $0x23,0x24(%eax)
  p->tf->es = p->tf->ds;
  101421:	66 c7 40 20 23 00    	movw   $0x23,0x20(%eax)
  p->tf->ss = p->tf->ds;
  101427:	66 c7 40 40 23 00    	movw   $0x23,0x40(%eax)
  p->tf->eflags = FL_IF;
  10142d:	c7 40 38 00 02 00 00 	movl   $0x200,0x38(%eax)
  p->tf->esp = p->sz;

  // Make return address readable; needed for some gcc.
  p->tf->esp -= 4;
  *(uint*)(p->mem + p->tf->esp) = 0xefefefef;
  101434:	c7 44 0a fc ef ef ef 	movl   $0xefefefef,-0x4(%edx,%ecx,1)
  10143b:	ef 

  // On entry to user space, start executing at beginning of initcode.S.
  p->tf->eip = 0;
  10143c:	c7 40 30 00 00 00 00 	movl   $0x0,0x30(%eax)
  memmove(p->mem, _binary_initcode_start, (int)_binary_initcode_size);
  101443:	89 14 24             	mov    %edx,(%esp)
  101446:	c7 44 24 08 2c 00 00 	movl   $0x2c,0x8(%esp)
  10144d:	00 
  10144e:	c7 44 24 04 20 87 10 	movl   $0x108720,0x4(%esp)
  101455:	00 
  101456:	e8 45 fa ff ff       	call   100ea0 <memmove>
  safestrcpy(p->name, "initcode", sizeof(p->name));
  10145b:	8d 83 88 00 00 00    	lea    0x88(%ebx),%eax
  101461:	c7 44 24 08 10 00 00 	movl   $0x10,0x8(%esp)
  101468:	00 
  101469:	c7 44 24 04 fe 5f 10 	movl   $0x105ffe,0x4(%esp)
  101470:	00 
  101471:	89 04 24             	mov    %eax,(%esp)
  101474:	e8 47 fb ff ff       	call   100fc0 <safestrcpy>
  p->state = RUNNABLE;
  101479:	c7 43 0c 03 00 00 00 	movl   $0x3,0xc(%ebx)

  initproc = p;
  101480:	89 1d 18 88 10 00    	mov    %ebx,0x108818
}
  101486:	83 c4 18             	add    $0x18,%esp
  101489:	5b                   	pop    %ebx
  10148a:	c3                   	ret    
  10148b:	90                   	nop
  10148c:	8d 74 26 00          	lea    0x0(%esi,%eiz,1),%esi

00101490 <curproc>:

// Return currently running process.
struct proc*
curproc(void)
{
  101490:	53                   	push   %ebx
  101491:	83 ec 08             	sub    $0x8,%esp
  struct proc *p;

  pushcli();
  101494:	e8 87 ed ff ff       	call   100220 <pushcli>
  p = cpus[cpu()].curproc;
  101499:	e8 92 f7 ff ff       	call   100c30 <cpu>
  10149e:	69 c0 cc 00 00 00    	imul   $0xcc,%eax,%eax
  1014a4:	8b 98 e4 d5 10 00    	mov    0x10d5e4(%eax),%ebx
  popcli();
  1014aa:	e8 31 ee ff ff       	call   1002e0 <popcli>
  return p;
}
  1014af:	83 c4 08             	add    $0x8,%esp
  1014b2:	89 d8                	mov    %ebx,%eax
  1014b4:	5b                   	pop    %ebx
  1014b5:	c3                   	ret    
  1014b6:	8d 76 00             	lea    0x0(%esi),%esi
  1014b9:	8d bc 27 00 00 00 00 	lea    0x0(%edi,%eiz,1),%edi

001014c0 <forkret>:

// A fork child's very first scheduling by scheduler()
// will swtch here.  "Return" to user space.
void
forkret(void)
{
  1014c0:	83 ec 1c             	sub    $0x1c,%esp
  // Still holding proc_table_lock from scheduler.
  release(&proc_table_lock);
  1014c3:	c7 04 24 40 d5 10 00 	movl   $0x10d540,(%esp)
  1014ca:	e8 91 ee ff ff       	call   100360 <release>

  // Jump into assembly, never to return.
  forkret1(cp->tf);
  1014cf:	e8 bc ff ff ff       	call   101490 <curproc>
  1014d4:	8b 80 84 00 00 00    	mov    0x84(%eax),%eax
  1014da:	89 04 24             	mov    %eax,(%esp)
  1014dd:	e8 76 3f 00 00       	call   105458 <forkret1>
}
  1014e2:	83 c4 1c             	add    $0x1c,%esp
  1014e5:	c3                   	ret    
  1014e6:	8d 76 00             	lea    0x0(%esi),%esi
  1014e9:	8d bc 27 00 00 00 00 	lea    0x0(%edi,%eiz,1),%edi

001014f0 <growproc>:

// Grow current process's memory by n bytes.
// Return old size on success, -1 on failure.
int
growproc(int n)
{
  1014f0:	57                   	push   %edi
  1014f1:	56                   	push   %esi
  1014f2:	53                   	push   %ebx
  1014f3:	83 ec 10             	sub    $0x10,%esp
  1014f6:	8b 5c 24 20          	mov    0x20(%esp),%ebx
  char *newmem, *oldmem;

  newmem = kalloc(cp->sz + n);
  1014fa:	e8 91 ff ff ff       	call   101490 <curproc>
  1014ff:	8b 40 04             	mov    0x4(%eax),%eax
  101502:	01 d8                	add    %ebx,%eax
  101504:	89 04 24             	mov    %eax,(%esp)
  101507:	e8 34 09 00 00       	call   101e40 <kalloc>
  if(newmem == 0)
  10150c:	85 c0                	test   %eax,%eax
int
growproc(int n)
{
  char *newmem, *oldmem;

  newmem = kalloc(cp->sz + n);
  10150e:	89 c6                	mov    %eax,%esi
  if(newmem == 0)
  101510:	0f 84 8a 00 00 00    	je     1015a0 <growproc+0xb0>
    return -1;
  memmove(newmem, cp->mem, cp->sz);
  101516:	e8 75 ff ff ff       	call   101490 <curproc>
  10151b:	8b 78 04             	mov    0x4(%eax),%edi
  10151e:	e8 6d ff ff ff       	call   101490 <curproc>
  101523:	89 7c 24 08          	mov    %edi,0x8(%esp)
  101527:	8b 00                	mov    (%eax),%eax
  101529:	89 34 24             	mov    %esi,(%esp)
  10152c:	89 44 24 04          	mov    %eax,0x4(%esp)
  101530:	e8 6b f9 ff ff       	call   100ea0 <memmove>
  memset(newmem + cp->sz, 0, n);
  101535:	e8 56 ff ff ff       	call   101490 <curproc>
  10153a:	89 5c 24 08          	mov    %ebx,0x8(%esp)
  10153e:	c7 44 24 04 00 00 00 	movl   $0x0,0x4(%esp)
  101545:	00 
  101546:	8b 40 04             	mov    0x4(%eax),%eax
  101549:	01 f0                	add    %esi,%eax
  10154b:	89 04 24             	mov    %eax,(%esp)
  10154e:	e8 bd f8 ff ff       	call   100e10 <memset>
  oldmem = cp->mem;
  101553:	e8 38 ff ff ff       	call   101490 <curproc>
  101558:	8b 38                	mov    (%eax),%edi
  cp->mem = newmem;
  10155a:	e8 31 ff ff ff       	call   101490 <curproc>
  10155f:	89 30                	mov    %esi,(%eax)
  kfree(oldmem, cp->sz);
  101561:	e8 2a ff ff ff       	call   101490 <curproc>
  101566:	8b 40 04             	mov    0x4(%eax),%eax
  101569:	89 3c 24             	mov    %edi,(%esp)
  10156c:	89 44 24 04          	mov    %eax,0x4(%esp)
  101570:	e8 6b 07 00 00       	call   101ce0 <kfree>
  cp->sz += n;
  101575:	e8 16 ff ff ff       	call   101490 <curproc>
  10157a:	01 58 04             	add    %ebx,0x4(%eax)
  setupsegs(cp);
  10157d:	e8 0e ff ff ff       	call   101490 <curproc>
  101582:	89 04 24             	mov    %eax,(%esp)
  101585:	e8 b6 fa ff ff       	call   101040 <setupsegs>
  return cp->sz - n;
  10158a:	e8 01 ff ff ff       	call   101490 <curproc>
  10158f:	8b 40 04             	mov    0x4(%eax),%eax
  101592:	29 d8                	sub    %ebx,%eax
}
  101594:	83 c4 10             	add    $0x10,%esp
  101597:	5b                   	pop    %ebx
  101598:	5e                   	pop    %esi
  101599:	5f                   	pop    %edi
  10159a:	c3                   	ret    
  10159b:	90                   	nop
  10159c:	8d 74 26 00          	lea    0x0(%esi,%eiz,1),%esi
{
  char *newmem, *oldmem;

  newmem = kalloc(cp->sz + n);
  if(newmem == 0)
    return -1;
  1015a0:	b8 ff ff ff ff       	mov    $0xffffffff,%eax
  1015a5:	eb ed                	jmp    101594 <growproc+0xa4>
  1015a7:	89 f6                	mov    %esi,%esi
  1015a9:	8d bc 27 00 00 00 00 	lea    0x0(%edi,%eiz,1),%edi

001015b0 <scheduler>:
//  - swtch to start running that process
//  - eventually that process transfers control
//      via swtch back to the scheduler.
void
scheduler(void)
{
  1015b0:	55                   	push   %ebp
  1015b1:	57                   	push   %edi
  1015b2:	56                   	push   %esi
  1015b3:	53                   	push   %ebx
  1015b4:	83 ec 1c             	sub    $0x1c,%esp
  struct proc *p;
  struct cpu *c;
  int i;

  c = &cpus[cpu()];
  1015b7:	e8 74 f6 ff ff       	call   100c30 <cpu>
  1015bc:	69 f8 cc 00 00 00    	imul   $0xcc,%eax,%edi
  1015c2:	81 c7 e0 d5 10 00    	add    $0x10d5e0,%edi
  1015c8:	8d 6f 08             	lea    0x8(%edi),%ebp
  1015cb:	90                   	nop
  1015cc:	8d 74 26 00          	lea    0x0(%esi,%eiz,1),%esi
}

static inline void
sti(void)
{
  asm volatile("sti");
  1015d0:	fb                   	sti    
  for(;;){
    // Enable interrupts on this processor.
    sti();

    // Loop over process table looking for process to run.
    acquire(&proc_table_lock);
  1015d1:	c7 04 24 40 d5 10 00 	movl   $0x10d540,(%esp)
    for(i = 0; i < NPROC; i++){
  1015d8:	31 db                	xor    %ebx,%ebx
  for(;;){
    // Enable interrupts on this processor.
    sti();

    // Loop over process table looking for process to run.
    acquire(&proc_table_lock);
  1015da:	e8 91 ec ff ff       	call   100270 <acquire>
  1015df:	eb 12                	jmp    1015f3 <scheduler+0x43>
  1015e1:	8d b4 26 00 00 00 00 	lea    0x0(%esi,%eiz,1),%esi
    for(i = 0; i < NPROC; i++){
  1015e8:	83 c3 01             	add    $0x1,%ebx
  1015eb:	81 fb 80 00 00 00    	cmp    $0x80,%ebx
  1015f1:	74 55                	je     101648 <scheduler+0x98>
      p = &proc[i];
  1015f3:	69 f3 98 00 00 00    	imul   $0x98,%ebx,%esi
  1015f9:	81 c6 40 89 10 00    	add    $0x108940,%esi
      if(p->state != RUNNABLE)
  1015ff:	83 7e 0c 03          	cmpl   $0x3,0xc(%esi)
  101603:	75 e3                	jne    1015e8 <scheduler+0x38>
        continue;

      // Switch to chosen process.  It is the process's job
      // to release proc_table_lock and then reacquire it
      // before jumping back to us.
      c->curproc = p;
  101605:	89 77 04             	mov    %esi,0x4(%edi)
    // Enable interrupts on this processor.
    sti();

    // Loop over process table looking for process to run.
    acquire(&proc_table_lock);
    for(i = 0; i < NPROC; i++){
  101608:	83 c3 01             	add    $0x1,%ebx

      // Switch to chosen process.  It is the process's job
      // to release proc_table_lock and then reacquire it
      // before jumping back to us.
      c->curproc = p;
      setupsegs(p);
  10160b:	89 34 24             	mov    %esi,(%esp)
  10160e:	e8 2d fa ff ff       	call   101040 <setupsegs>
      p->state = RUNNING;
  101613:	c7 46 0c 04 00 00 00 	movl   $0x4,0xc(%esi)
      swtch(&c->context, &p->context);
  10161a:	83 c6 64             	add    $0x64,%esi
  10161d:	89 74 24 04          	mov    %esi,0x4(%esp)
  101621:	89 2c 24             	mov    %ebp,(%esp)
  101624:	e8 27 26 00 00       	call   103c50 <swtch>

      // Process is done running for now.
      // It should have changed its p->state before coming back.
      c->curproc = 0;
  101629:	c7 47 04 00 00 00 00 	movl   $0x0,0x4(%edi)
      setupsegs(0);
  101630:	c7 04 24 00 00 00 00 	movl   $0x0,(%esp)
  101637:	e8 04 fa ff ff       	call   101040 <setupsegs>
    // Enable interrupts on this processor.
    sti();

    // Loop over process table looking for process to run.
    acquire(&proc_table_lock);
    for(i = 0; i < NPROC; i++){
  10163c:	81 fb 80 00 00 00    	cmp    $0x80,%ebx
  101642:	75 af                	jne    1015f3 <scheduler+0x43>
  101644:	8d 74 26 00          	lea    0x0(%esi,%eiz,1),%esi
      // Process is done running for now.
      // It should have changed its p->state before coming back.
      c->curproc = 0;
      setupsegs(0);
    }
    release(&proc_table_lock);
  101648:	c7 04 24 40 d5 10 00 	movl   $0x10d540,(%esp)
  10164f:	e8 0c ed ff ff       	call   100360 <release>

  }
  101654:	e9 77 ff ff ff       	jmp    1015d0 <scheduler+0x20>
  101659:	8d b4 26 00 00 00 00 	lea    0x0(%esi,%eiz,1),%esi

00101660 <sched>:

// Enter scheduler.  Must already hold proc_table_lock
// and have changed curproc[cpu()]->state.
void
sched(void)
{
  101660:	53                   	push   %ebx
  101661:	83 ec 18             	sub    $0x18,%esp

static inline uint
read_eflags(void)
{
  uint eflags;
  asm volatile("pushfl; popl %0" : "=r" (eflags));
  101664:	9c                   	pushf  
  101665:	58                   	pop    %eax
  if(read_eflags()&FL_IF)
  101666:	f6 c4 02             	test   $0x2,%ah
  101669:	75 5b                	jne    1016c6 <sched+0x66>
    panic("sched interruptible");
  if(cp->state == RUNNING)
  10166b:	e8 20 fe ff ff       	call   101490 <curproc>
  101670:	83 78 0c 04          	cmpl   $0x4,0xc(%eax)
  101674:	74 74                	je     1016ea <sched+0x8a>
    panic("sched running");
  if(!holding(&proc_table_lock))
  101676:	c7 04 24 40 d5 10 00 	movl   $0x10d540,(%esp)
  10167d:	e8 6e eb ff ff       	call   1001f0 <holding>
  101682:	85 c0                	test   %eax,%eax
  101684:	74 58                	je     1016de <sched+0x7e>
    panic("sched proc_table_lock");
  if(cpus[cpu()].ncli != 1)
  101686:	e8 a5 f5 ff ff       	call   100c30 <cpu>
  10168b:	69 c0 cc 00 00 00    	imul   $0xcc,%eax,%eax
  101691:	83 b8 a4 d6 10 00 01 	cmpl   $0x1,0x10d6a4(%eax)
  101698:	75 38                	jne    1016d2 <sched+0x72>
    panic("sched locks");

  swtch(&cp->context, &cpus[cpu()].context);
  10169a:	e8 91 f5 ff ff       	call   100c30 <cpu>
  10169f:	89 c3                	mov    %eax,%ebx
  1016a1:	e8 ea fd ff ff       	call   101490 <curproc>
  1016a6:	69 db cc 00 00 00    	imul   $0xcc,%ebx,%ebx
  1016ac:	81 c3 e8 d5 10 00    	add    $0x10d5e8,%ebx
  1016b2:	89 5c 24 04          	mov    %ebx,0x4(%esp)
  1016b6:	83 c0 64             	add    $0x64,%eax
  1016b9:	89 04 24             	mov    %eax,(%esp)
  1016bc:	e8 8f 25 00 00       	call   103c50 <swtch>
}
  1016c1:	83 c4 18             	add    $0x18,%esp
  1016c4:	5b                   	pop    %ebx
  1016c5:	c3                   	ret    
// and have changed curproc[cpu()]->state.
void
sched(void)
{
  if(read_eflags()&FL_IF)
    panic("sched interruptible");
  1016c6:	c7 04 24 07 60 10 00 	movl   $0x106007,(%esp)
  1016cd:	e8 de f3 ff ff       	call   100ab0 <panic>
  if(cp->state == RUNNING)
    panic("sched running");
  if(!holding(&proc_table_lock))
    panic("sched proc_table_lock");
  if(cpus[cpu()].ncli != 1)
    panic("sched locks");
  1016d2:	c7 04 24 3f 60 10 00 	movl   $0x10603f,(%esp)
  1016d9:	e8 d2 f3 ff ff       	call   100ab0 <panic>
  if(read_eflags()&FL_IF)
    panic("sched interruptible");
  if(cp->state == RUNNING)
    panic("sched running");
  if(!holding(&proc_table_lock))
    panic("sched proc_table_lock");
  1016de:	c7 04 24 29 60 10 00 	movl   $0x106029,(%esp)
  1016e5:	e8 c6 f3 ff ff       	call   100ab0 <panic>
sched(void)
{
  if(read_eflags()&FL_IF)
    panic("sched interruptible");
  if(cp->state == RUNNING)
    panic("sched running");
  1016ea:	c7 04 24 1b 60 10 00 	movl   $0x10601b,(%esp)
  1016f1:	e8 ba f3 ff ff       	call   100ab0 <panic>
  1016f6:	8d 76 00             	lea    0x0(%esi),%esi
  1016f9:	8d bc 27 00 00 00 00 	lea    0x0(%edi,%eiz,1),%edi

00101700 <yield>:
}

// Give up the CPU for one scheduling round.
void
yield(void)
{
  101700:	83 ec 1c             	sub    $0x1c,%esp
  acquire(&proc_table_lock);
  101703:	c7 04 24 40 d5 10 00 	movl   $0x10d540,(%esp)
  10170a:	e8 61 eb ff ff       	call   100270 <acquire>
  cp->state = RUNNABLE;
  10170f:	e8 7c fd ff ff       	call   101490 <curproc>
  101714:	c7 40 0c 03 00 00 00 	movl   $0x3,0xc(%eax)
  sched();
  10171b:	e8 40 ff ff ff       	call   101660 <sched>
  release(&proc_table_lock);
  101720:	c7 04 24 40 d5 10 00 	movl   $0x10d540,(%esp)
  101727:	e8 34 ec ff ff       	call   100360 <release>
}
  10172c:	83 c4 1c             	add    $0x1c,%esp
  10172f:	c3                   	ret    

00101730 <sleep>:

// Atomically release lock and sleep on chan.
// Reacquires lock when reawakened.
void
sleep(void *chan, struct spinlock *lk)
{
  101730:	56                   	push   %esi
  101731:	53                   	push   %ebx
  101732:	83 ec 14             	sub    $0x14,%esp
  101735:	8b 74 24 20          	mov    0x20(%esp),%esi
  101739:	8b 5c 24 24          	mov    0x24(%esp),%ebx
  if(cp == 0)
  10173d:	e8 4e fd ff ff       	call   101490 <curproc>
  101742:	85 c0                	test   %eax,%eax
  101744:	0f 84 9d 00 00 00    	je     1017e7 <sleep+0xb7>
    panic("sleep");

  if(lk == 0)
  10174a:	85 db                	test   %ebx,%ebx
  10174c:	0f 84 89 00 00 00    	je     1017db <sleep+0xab>
  // change p->state and then call sched.
  // Once we hold proc_table_lock, we can be
  // guaranteed that we won't miss any wakeup
  // (wakeup runs with proc_table_lock locked),
  // so it's okay to release lk.
  if(lk != &proc_table_lock){
  101752:	81 fb 40 d5 10 00    	cmp    $0x10d540,%ebx
  101758:	74 56                	je     1017b0 <sleep+0x80>
    acquire(&proc_table_lock);
  10175a:	c7 04 24 40 d5 10 00 	movl   $0x10d540,(%esp)
  101761:	e8 0a eb ff ff       	call   100270 <acquire>
    release(lk);
  101766:	89 1c 24             	mov    %ebx,(%esp)
  101769:	e8 f2 eb ff ff       	call   100360 <release>
  }

  // Go to sleep.
  cp->chan = chan;
  10176e:	e8 1d fd ff ff       	call   101490 <curproc>
  101773:	89 70 18             	mov    %esi,0x18(%eax)
  cp->state = SLEEPING;
  101776:	e8 15 fd ff ff       	call   101490 <curproc>
  10177b:	c7 40 0c 02 00 00 00 	movl   $0x2,0xc(%eax)
  sched();
  101782:	e8 d9 fe ff ff       	call   101660 <sched>

  // Tidy up.
  cp->chan = 0;
  101787:	e8 04 fd ff ff       	call   101490 <curproc>
  10178c:	c7 40 18 00 00 00 00 	movl   $0x0,0x18(%eax)

  // Reacquire original lock.
  if(lk != &proc_table_lock){
    release(&proc_table_lock);
  101793:	c7 04 24 40 d5 10 00 	movl   $0x10d540,(%esp)
  10179a:	e8 c1 eb ff ff       	call   100360 <release>
    acquire(lk);
  10179f:	89 5c 24 20          	mov    %ebx,0x20(%esp)
  }
}
  1017a3:	83 c4 14             	add    $0x14,%esp
  1017a6:	5b                   	pop    %ebx
  1017a7:	5e                   	pop    %esi
  cp->chan = 0;

  // Reacquire original lock.
  if(lk != &proc_table_lock){
    release(&proc_table_lock);
    acquire(lk);
  1017a8:	e9 c3 ea ff ff       	jmp    100270 <acquire>
  1017ad:	8d 76 00             	lea    0x0(%esi),%esi
    acquire(&proc_table_lock);
    release(lk);
  }

  // Go to sleep.
  cp->chan = chan;
  1017b0:	e8 db fc ff ff       	call   101490 <curproc>
  1017b5:	89 70 18             	mov    %esi,0x18(%eax)
  cp->state = SLEEPING;
  1017b8:	e8 d3 fc ff ff       	call   101490 <curproc>
  1017bd:	c7 40 0c 02 00 00 00 	movl   $0x2,0xc(%eax)
  sched();
  1017c4:	e8 97 fe ff ff       	call   101660 <sched>

  // Tidy up.
  cp->chan = 0;
  1017c9:	e8 c2 fc ff ff       	call   101490 <curproc>
  1017ce:	c7 40 18 00 00 00 00 	movl   $0x0,0x18(%eax)
  // Reacquire original lock.
  if(lk != &proc_table_lock){
    release(&proc_table_lock);
    acquire(lk);
  }
}
  1017d5:	83 c4 14             	add    $0x14,%esp
  1017d8:	5b                   	pop    %ebx
  1017d9:	5e                   	pop    %esi
  1017da:	c3                   	ret    
{
  if(cp == 0)
    panic("sleep");

  if(lk == 0)
    panic("sleep without lk");
  1017db:	c7 04 24 51 60 10 00 	movl   $0x106051,(%esp)
  1017e2:	e8 c9 f2 ff ff       	call   100ab0 <panic>
// Reacquires lock when reawakened.
void
sleep(void *chan, struct spinlock *lk)
{
  if(cp == 0)
    panic("sleep");
  1017e7:	c7 04 24 4b 60 10 00 	movl   $0x10604b,(%esp)
  1017ee:	e8 bd f2 ff ff       	call   100ab0 <panic>
  1017f3:	8d b6 00 00 00 00    	lea    0x0(%esi),%esi
  1017f9:	8d bc 27 00 00 00 00 	lea    0x0(%edi,%eiz,1),%edi

00101800 <wakeup>:

// Wake up all processes sleeping on chan.
// Proc_table_lock is acquired and released.
void
wakeup(void *chan)
{
  101800:	53                   	push   %ebx
  101801:	83 ec 18             	sub    $0x18,%esp
  acquire(&proc_table_lock);
  101804:	c7 04 24 40 d5 10 00 	movl   $0x10d540,(%esp)

// Wake up all processes sleeping on chan.
// Proc_table_lock is acquired and released.
void
wakeup(void *chan)
{
  10180b:	8b 5c 24 20          	mov    0x20(%esp),%ebx
  acquire(&proc_table_lock);
  10180f:	e8 5c ea ff ff       	call   100270 <acquire>
static void
wakeup1(void *chan)
{
  struct proc *p;

  for(p = proc; p < &proc[NPROC]; p++)
  101814:	b8 40 89 10 00       	mov    $0x108940,%eax
  101819:	eb 11                	jmp    10182c <wakeup+0x2c>
  10181b:	90                   	nop
  10181c:	8d 74 26 00          	lea    0x0(%esi,%eiz,1),%esi
  101820:	05 98 00 00 00       	add    $0x98,%eax
  101825:	3d 40 d5 10 00       	cmp    $0x10d540,%eax
  10182a:	73 1e                	jae    10184a <wakeup+0x4a>
    if(p->state == SLEEPING && p->chan == chan)
  10182c:	83 78 0c 02          	cmpl   $0x2,0xc(%eax)
  101830:	75 ee                	jne    101820 <wakeup+0x20>
  101832:	3b 58 18             	cmp    0x18(%eax),%ebx
  101835:	75 e9                	jne    101820 <wakeup+0x20>
      p->state = RUNNABLE;
  101837:	c7 40 0c 03 00 00 00 	movl   $0x3,0xc(%eax)
static void
wakeup1(void *chan)
{
  struct proc *p;

  for(p = proc; p < &proc[NPROC]; p++)
  10183e:	05 98 00 00 00       	add    $0x98,%eax
  101843:	3d 40 d5 10 00       	cmp    $0x10d540,%eax
  101848:	72 e2                	jb     10182c <wakeup+0x2c>
void
wakeup(void *chan)
{
  acquire(&proc_table_lock);
  wakeup1(chan);
  release(&proc_table_lock);
  10184a:	c7 44 24 20 40 d5 10 	movl   $0x10d540,0x20(%esp)
  101851:	00 
}
  101852:	83 c4 18             	add    $0x18,%esp
  101855:	5b                   	pop    %ebx
void
wakeup(void *chan)
{
  acquire(&proc_table_lock);
  wakeup1(chan);
  release(&proc_table_lock);
  101856:	e9 05 eb ff ff       	jmp    100360 <release>
  10185b:	90                   	nop
  10185c:	8d 74 26 00          	lea    0x0(%esi,%eiz,1),%esi

00101860 <kill>:
// Kill the process with the given pid.
// Process won't actually exit until it returns
// to user space (see trap in trap.c).
int
kill(int pid)
{
  101860:	53                   	push   %ebx
  101861:	83 ec 18             	sub    $0x18,%esp
  101864:	8b 5c 24 20          	mov    0x20(%esp),%ebx
  struct proc *p;

  acquire(&proc_table_lock);
  101868:	c7 04 24 40 d5 10 00 	movl   $0x10d540,(%esp)
  10186f:	e8 fc e9 ff ff       	call   100270 <acquire>
  for(p = proc; p < &proc[NPROC]; p++){
  101874:	b8 40 89 10 00       	mov    $0x108940,%eax
    if(p->pid == pid){
  101879:	39 1d 50 89 10 00    	cmp    %ebx,0x108950
  10187f:	74 18                	je     101899 <kill+0x39>
  101881:	8d b4 26 00 00 00 00 	lea    0x0(%esi,%eiz,1),%esi
kill(int pid)
{
  struct proc *p;

  acquire(&proc_table_lock);
  for(p = proc; p < &proc[NPROC]; p++){
  101888:	05 98 00 00 00       	add    $0x98,%eax
  10188d:	3d 40 d5 10 00       	cmp    $0x10d540,%eax
  101892:	73 2c                	jae    1018c0 <kill+0x60>
    if(p->pid == pid){
  101894:	39 58 10             	cmp    %ebx,0x10(%eax)
  101897:	75 ef                	jne    101888 <kill+0x28>
      p->killed = 1;
      // Wake process from sleep if necessary.
      if(p->state == SLEEPING)
  101899:	83 78 0c 02          	cmpl   $0x2,0xc(%eax)
  struct proc *p;

  acquire(&proc_table_lock);
  for(p = proc; p < &proc[NPROC]; p++){
    if(p->pid == pid){
      p->killed = 1;
  10189d:	c7 40 1c 01 00 00 00 	movl   $0x1,0x1c(%eax)
      // Wake process from sleep if necessary.
      if(p->state == SLEEPING)
  1018a4:	75 07                	jne    1018ad <kill+0x4d>
        p->state = RUNNABLE;
  1018a6:	c7 40 0c 03 00 00 00 	movl   $0x3,0xc(%eax)
      release(&proc_table_lock);
  1018ad:	c7 04 24 40 d5 10 00 	movl   $0x10d540,(%esp)
  1018b4:	e8 a7 ea ff ff       	call   100360 <release>
      return 0;
    }
  }
  release(&proc_table_lock);
  return -1;
}
  1018b9:	83 c4 18             	add    $0x18,%esp
      p->killed = 1;
      // Wake process from sleep if necessary.
      if(p->state == SLEEPING)
        p->state = RUNNABLE;
      release(&proc_table_lock);
      return 0;
  1018bc:	31 c0                	xor    %eax,%eax
    }
  }
  release(&proc_table_lock);
  return -1;
}
  1018be:	5b                   	pop    %ebx
  1018bf:	c3                   	ret    
        p->state = RUNNABLE;
      release(&proc_table_lock);
      return 0;
    }
  }
  release(&proc_table_lock);
  1018c0:	c7 04 24 40 d5 10 00 	movl   $0x10d540,(%esp)
  1018c7:	e8 94 ea ff ff       	call   100360 <release>
  return -1;
}
  1018cc:	83 c4 18             	add    $0x18,%esp
      release(&proc_table_lock);
      return 0;
    }
  }
  release(&proc_table_lock);
  return -1;
  1018cf:	b8 ff ff ff ff       	mov    $0xffffffff,%eax
}
  1018d4:	5b                   	pop    %ebx
  1018d5:	c3                   	ret    
  1018d6:	8d 76 00             	lea    0x0(%esi),%esi
  1018d9:	8d bc 27 00 00 00 00 	lea    0x0(%edi,%eiz,1),%edi

001018e0 <exit>:
// Exit the current process.  Does not return.
// Exited processes remain in the zombie state
// until their parent calls wait() to find out they exited.
void
exit(void)
{
  1018e0:	56                   	push   %esi
  1018e1:	53                   	push   %ebx
  struct proc *p;
  int fd;

  if(cp == initproc)
  1018e2:	31 db                	xor    %ebx,%ebx
// Exit the current process.  Does not return.
// Exited processes remain in the zombie state
// until their parent calls wait() to find out they exited.
void
exit(void)
{
  1018e4:	83 ec 14             	sub    $0x14,%esp
  struct proc *p;
  int fd;

  if(cp == initproc)
  1018e7:	e8 a4 fb ff ff       	call   101490 <curproc>
  1018ec:	3b 05 18 88 10 00    	cmp    0x108818,%eax
  1018f2:	0f 84 21 01 00 00    	je     101a19 <exit+0x139>
    panic("init exiting");

  // Close all open files.
  for(fd = 0; fd < NOFILE; fd++){
    if(cp->ofile[fd]){
  1018f8:	e8 93 fb ff ff       	call   101490 <curproc>
  1018fd:	8d 73 08             	lea    0x8(%ebx),%esi
  101900:	8b 0c b0             	mov    (%eax,%esi,4),%ecx
  101903:	85 c9                	test   %ecx,%ecx
  101905:	74 1c                	je     101923 <exit+0x43>
      fileclose(cp->ofile[fd]);
  101907:	e8 84 fb ff ff       	call   101490 <curproc>
  10190c:	8b 04 b0             	mov    (%eax,%esi,4),%eax
  10190f:	89 04 24             	mov    %eax,(%esp)
  101912:	e8 59 09 00 00       	call   102270 <fileclose>
      cp->ofile[fd] = 0;
  101917:	e8 74 fb ff ff       	call   101490 <curproc>
  10191c:	c7 04 b0 00 00 00 00 	movl   $0x0,(%eax,%esi,4)

  if(cp == initproc)
    panic("init exiting");

  // Close all open files.
  for(fd = 0; fd < NOFILE; fd++){
  101923:	83 c3 01             	add    $0x1,%ebx
  101926:	83 fb 10             	cmp    $0x10,%ebx
  101929:	75 cd                	jne    1018f8 <exit+0x18>
      fileclose(cp->ofile[fd]);
      cp->ofile[fd] = 0;
    }
  }

  iput(cp->cwd);
  10192b:	e8 60 fb ff ff       	call   101490 <curproc>
  101930:	8b 40 60             	mov    0x60(%eax),%eax
  101933:	89 04 24             	mov    %eax,(%esp)
  101936:	e8 85 12 00 00       	call   102bc0 <iput>
  cp->cwd = 0;
  10193b:	e8 50 fb ff ff       	call   101490 <curproc>
  101940:	c7 40 60 00 00 00 00 	movl   $0x0,0x60(%eax)

  acquire(&proc_table_lock);
  101947:	c7 04 24 40 d5 10 00 	movl   $0x10d540,(%esp)
  10194e:	e8 1d e9 ff ff       	call   100270 <acquire>

  // Parent might be sleeping in wait().
  wakeup1(cp->parent);
  101953:	e8 38 fb ff ff       	call   101490 <curproc>
  101958:	8b 50 14             	mov    0x14(%eax),%edx
static void
wakeup1(void *chan)
{
  struct proc *p;

  for(p = proc; p < &proc[NPROC]; p++)
  10195b:	b8 40 89 10 00       	mov    $0x108940,%eax
  101960:	eb 12                	jmp    101974 <exit+0x94>
  101962:	8d b6 00 00 00 00    	lea    0x0(%esi),%esi
  101968:	05 98 00 00 00       	add    $0x98,%eax
  10196d:	3d 40 d5 10 00       	cmp    $0x10d540,%eax
  101972:	73 1e                	jae    101992 <exit+0xb2>
    if(p->state == SLEEPING && p->chan == chan)
  101974:	83 78 0c 02          	cmpl   $0x2,0xc(%eax)
  101978:	75 ee                	jne    101968 <exit+0x88>
  10197a:	3b 50 18             	cmp    0x18(%eax),%edx
  10197d:	75 e9                	jne    101968 <exit+0x88>
      p->state = RUNNABLE;
  10197f:	c7 40 0c 03 00 00 00 	movl   $0x3,0xc(%eax)
static void
wakeup1(void *chan)
{
  struct proc *p;

  for(p = proc; p < &proc[NPROC]; p++)
  101986:	05 98 00 00 00       	add    $0x98,%eax
  10198b:	3d 40 d5 10 00       	cmp    $0x10d540,%eax
  101990:	72 e2                	jb     101974 <exit+0x94>
  101992:	bb 40 89 10 00       	mov    $0x108940,%ebx
  101997:	eb 15                	jmp    1019ae <exit+0xce>
  101999:	8d b4 26 00 00 00 00 	lea    0x0(%esi,%eiz,1),%esi

  // Parent might be sleeping in wait().
  wakeup1(cp->parent);

  // Pass abandoned children to init.
  for(p = proc; p < &proc[NPROC]; p++){
  1019a0:	81 c3 98 00 00 00    	add    $0x98,%ebx
  1019a6:	81 fb 40 d5 10 00    	cmp    $0x10d540,%ebx
  1019ac:	73 42                	jae    1019f0 <exit+0x110>
    if(p->parent == cp){
  1019ae:	8b 73 14             	mov    0x14(%ebx),%esi
  1019b1:	e8 da fa ff ff       	call   101490 <curproc>
  1019b6:	39 c6                	cmp    %eax,%esi
  1019b8:	75 e6                	jne    1019a0 <exit+0xc0>
      p->parent = initproc;
  1019ba:	8b 15 18 88 10 00    	mov    0x108818,%edx
      if(p->state == ZOMBIE)
  1019c0:	83 7b 0c 05          	cmpl   $0x5,0xc(%ebx)
  wakeup1(cp->parent);

  // Pass abandoned children to init.
  for(p = proc; p < &proc[NPROC]; p++){
    if(p->parent == cp){
      p->parent = initproc;
  1019c4:	89 53 14             	mov    %edx,0x14(%ebx)
      if(p->state == ZOMBIE)
  1019c7:	75 d7                	jne    1019a0 <exit+0xc0>
  1019c9:	b8 40 89 10 00       	mov    $0x108940,%eax
  1019ce:	eb 0c                	jmp    1019dc <exit+0xfc>
static void
wakeup1(void *chan)
{
  struct proc *p;

  for(p = proc; p < &proc[NPROC]; p++)
  1019d0:	05 98 00 00 00       	add    $0x98,%eax
  1019d5:	3d 40 d5 10 00       	cmp    $0x10d540,%eax
  1019da:	73 c4                	jae    1019a0 <exit+0xc0>
    if(p->state == SLEEPING && p->chan == chan)
  1019dc:	83 78 0c 02          	cmpl   $0x2,0xc(%eax)
  1019e0:	75 ee                	jne    1019d0 <exit+0xf0>
  1019e2:	3b 50 18             	cmp    0x18(%eax),%edx
  1019e5:	75 e9                	jne    1019d0 <exit+0xf0>
      p->state = RUNNABLE;
  1019e7:	c7 40 0c 03 00 00 00 	movl   $0x3,0xc(%eax)
  1019ee:	eb e0                	jmp    1019d0 <exit+0xf0>
        wakeup1(initproc);
    }
  }

  // Jump into the scheduler, never to return.
  cp->killed = 0;
  1019f0:	e8 9b fa ff ff       	call   101490 <curproc>
  1019f5:	c7 40 1c 00 00 00 00 	movl   $0x0,0x1c(%eax)
  cp->state = ZOMBIE;
  1019fc:	e8 8f fa ff ff       	call   101490 <curproc>
  101a01:	c7 40 0c 05 00 00 00 	movl   $0x5,0xc(%eax)
  sched();
  101a08:	e8 53 fc ff ff       	call   101660 <sched>
  panic("zombie exit");
  101a0d:	c7 04 24 6f 60 10 00 	movl   $0x10606f,(%esp)
  101a14:	e8 97 f0 ff ff       	call   100ab0 <panic>
{
  struct proc *p;
  int fd;

  if(cp == initproc)
    panic("init exiting");
  101a19:	c7 04 24 62 60 10 00 	movl   $0x106062,(%esp)
  101a20:	e8 8b f0 ff ff       	call   100ab0 <panic>
  101a25:	8d 74 26 00          	lea    0x0(%esi,%eiz,1),%esi
  101a29:	8d bc 27 00 00 00 00 	lea    0x0(%edi,%eiz,1),%edi

00101a30 <wait>:

// Wait for a child process to exit and return its pid.
// Return -1 if this process has no children.
int
wait(void)
{
  101a30:	55                   	push   %ebp
  101a31:	57                   	push   %edi
  int i, havekids, pid;

  acquire(&proc_table_lock);
  for(;;){
    // Scan through table looking for zombie children.
    havekids = 0;
  101a32:	31 ff                	xor    %edi,%edi

// Wait for a child process to exit and return its pid.
// Return -1 if this process has no children.
int
wait(void)
{
  101a34:	56                   	push   %esi
  101a35:	53                   	push   %ebx

  acquire(&proc_table_lock);
  for(;;){
    // Scan through table looking for zombie children.
    havekids = 0;
    for(i = 0; i < NPROC; i++){
  101a36:	31 db                	xor    %ebx,%ebx

// Wait for a child process to exit and return its pid.
// Return -1 if this process has no children.
int
wait(void)
{
  101a38:	83 ec 2c             	sub    $0x2c,%esp
  struct proc *p;
  int i, havekids, pid;

  acquire(&proc_table_lock);
  101a3b:	c7 04 24 40 d5 10 00 	movl   $0x10d540,(%esp)
  101a42:	e8 29 e8 ff ff       	call   100270 <acquire>
  for(;;){
    // Scan through table looking for zombie children.
    havekids = 0;
    for(i = 0; i < NPROC; i++){
  101a47:	83 fb 7f             	cmp    $0x7f,%ebx
  101a4a:	7e 2d                	jle    101a79 <wait+0x49>
  101a4c:	8d 74 26 00          	lea    0x0(%esi,%eiz,1),%esi
        havekids = 1;
      }
    }

    // No point waiting if we don't have any children.
    if(!havekids || cp->killed){
  101a50:	85 ff                	test   %edi,%edi
  101a52:	74 64                	je     101ab8 <wait+0x88>
  101a54:	e8 37 fa ff ff       	call   101490 <curproc>
  101a59:	8b 58 1c             	mov    0x1c(%eax),%ebx
  101a5c:	85 db                	test   %ebx,%ebx
  101a5e:	75 58                	jne    101ab8 <wait+0x88>
      release(&proc_table_lock);
      return -1;
    }

    // Wait for children to exit.  (See wakeup1 call in proc_exit.)
    sleep(cp, &proc_table_lock);
  101a60:	e8 2b fa ff ff       	call   101490 <curproc>
  int i, havekids, pid;

  acquire(&proc_table_lock);
  for(;;){
    // Scan through table looking for zombie children.
    havekids = 0;
  101a65:	31 ff                	xor    %edi,%edi
    for(i = 0; i < NPROC; i++){
  101a67:	31 db                	xor    %ebx,%ebx
      release(&proc_table_lock);
      return -1;
    }

    // Wait for children to exit.  (See wakeup1 call in proc_exit.)
    sleep(cp, &proc_table_lock);
  101a69:	c7 44 24 04 40 d5 10 	movl   $0x10d540,0x4(%esp)
  101a70:	00 
  101a71:	89 04 24             	mov    %eax,(%esp)
  101a74:	e8 b7 fc ff ff       	call   101730 <sleep>
  acquire(&proc_table_lock);
  for(;;){
    // Scan through table looking for zombie children.
    havekids = 0;
    for(i = 0; i < NPROC; i++){
      p = &proc[i];
  101a79:	69 f3 98 00 00 00    	imul   $0x98,%ebx,%esi
  101a7f:	81 c6 40 89 10 00    	add    $0x108940,%esi
      if(p->state == UNUSED)
  101a85:	8b 6e 0c             	mov    0xc(%esi),%ebp
  101a88:	85 ed                	test   %ebp,%ebp
  101a8a:	75 0c                	jne    101a98 <wait+0x68>

  acquire(&proc_table_lock);
  for(;;){
    // Scan through table looking for zombie children.
    havekids = 0;
    for(i = 0; i < NPROC; i++){
  101a8c:	83 c3 01             	add    $0x1,%ebx
  101a8f:	83 fb 7f             	cmp    $0x7f,%ebx
  101a92:	7e e5                	jle    101a79 <wait+0x49>
  101a94:	eb ba                	jmp    101a50 <wait+0x20>
  101a96:	66 90                	xchg   %ax,%ax
      p = &proc[i];
      if(p->state == UNUSED)
        continue;
      if(p->parent == cp){
  101a98:	8b 6e 14             	mov    0x14(%esi),%ebp
  101a9b:	e8 f0 f9 ff ff       	call   101490 <curproc>
  101aa0:	39 c5                	cmp    %eax,%ebp
  101aa2:	75 e8                	jne    101a8c <wait+0x5c>
        if(p->state == ZOMBIE){
  101aa4:	83 7e 0c 05          	cmpl   $0x5,0xc(%esi)
  101aa8:	74 27                	je     101ad1 <wait+0xa1>
          p->parent = 0;
          p->name[0] = 0;
          release(&proc_table_lock);
          return pid;
        }
        havekids = 1;
  101aaa:	bf 01 00 00 00       	mov    $0x1,%edi
  101aaf:	eb db                	jmp    101a8c <wait+0x5c>
  101ab1:	8d b4 26 00 00 00 00 	lea    0x0(%esi,%eiz,1),%esi
      }
    }

    // No point waiting if we don't have any children.
    if(!havekids || cp->killed){
      release(&proc_table_lock);
  101ab8:	c7 04 24 40 d5 10 00 	movl   $0x10d540,(%esp)
  101abf:	e8 9c e8 ff ff       	call   100360 <release>
      return -1;
  101ac4:	b8 ff ff ff ff       	mov    $0xffffffff,%eax
    }

    // Wait for children to exit.  (See wakeup1 call in proc_exit.)
    sleep(cp, &proc_table_lock);
  }
}
  101ac9:	83 c4 2c             	add    $0x2c,%esp
  101acc:	5b                   	pop    %ebx
  101acd:	5e                   	pop    %esi
  101ace:	5f                   	pop    %edi
  101acf:	5d                   	pop    %ebp
  101ad0:	c3                   	ret    
      if(p->state == UNUSED)
        continue;
      if(p->parent == cp){
        if(p->state == ZOMBIE){
          // Found one.
          kfree(p->mem, p->sz);
  101ad1:	8b 46 04             	mov    0x4(%esi),%eax
  101ad4:	89 44 24 04          	mov    %eax,0x4(%esp)
  101ad8:	8b 06                	mov    (%esi),%eax
  101ada:	89 04 24             	mov    %eax,(%esp)
  101add:	e8 fe 01 00 00       	call   101ce0 <kfree>
          kfree(p->kstack, KSTACKSIZE);
  101ae2:	c7 44 24 04 00 10 00 	movl   $0x1000,0x4(%esp)
  101ae9:	00 
  101aea:	8b 46 08             	mov    0x8(%esi),%eax
  101aed:	89 04 24             	mov    %eax,(%esp)
  101af0:	e8 eb 01 00 00       	call   101ce0 <kfree>
          pid = p->pid;
  101af5:	8b 46 10             	mov    0x10(%esi),%eax
          p->state = UNUSED;
  101af8:	c7 46 0c 00 00 00 00 	movl   $0x0,0xc(%esi)
          p->pid = 0;
  101aff:	c7 46 10 00 00 00 00 	movl   $0x0,0x10(%esi)
          p->parent = 0;
  101b06:	c7 46 14 00 00 00 00 	movl   $0x0,0x14(%esi)
          p->name[0] = 0;
  101b0d:	c6 86 88 00 00 00 00 	movb   $0x0,0x88(%esi)
          release(&proc_table_lock);
  101b14:	c7 04 24 40 d5 10 00 	movl   $0x10d540,(%esp)
  101b1b:	89 44 24 1c          	mov    %eax,0x1c(%esp)
  101b1f:	e8 3c e8 ff ff       	call   100360 <release>
          return pid;
  101b24:	8b 44 24 1c          	mov    0x1c(%esp),%eax
  101b28:	eb 9f                	jmp    101ac9 <wait+0x99>
  101b2a:	8d b6 00 00 00 00    	lea    0x0(%esi),%esi

00101b30 <procdump>:
// Print a process listing to console.  For debugging.
// Runs when user types ^P on console.
// No lock to avoid wedging a stuck machine further.
void
procdump(void)
{
  101b30:	55                   	push   %ebp
  101b31:	57                   	push   %edi
  101b32:	56                   	push   %esi
  101b33:	53                   	push   %ebx
  int i, j;
  struct proc *p;
  char *state;
  uint pc[10];

  for(i = 0; i < NPROC; i++){
  101b34:	31 db                	xor    %ebx,%ebx
// Print a process listing to console.  For debugging.
// Runs when user types ^P on console.
// No lock to avoid wedging a stuck machine further.
void
procdump(void)
{
  101b36:	83 ec 4c             	sub    $0x4c,%esp
      state = states[p->state];
    else
      state = "???";
    cprintf("%d %s %s", p->pid, state, p->name);
    if(p->state == SLEEPING){
      getcallerpcs((uint*)p->context.ebp+2, pc);
  101b39:	8d 6c 24 18          	lea    0x18(%esp),%ebp

// Print a process listing to console.  For debugging.
// Runs when user types ^P on console.
// No lock to avoid wedging a stuck machine further.
void
procdump(void)
  101b3d:	8d 7c 24 40          	lea    0x40(%esp),%edi
  101b41:	eb 20                	jmp    101b63 <procdump+0x33>
  101b43:	90                   	nop
  101b44:	8d 74 26 00          	lea    0x0(%esi,%eiz,1),%esi
    if(p->state == SLEEPING){
      getcallerpcs((uint*)p->context.ebp+2, pc);
      for(j=0; j<10 && pc[j] != 0; j++)
        cprintf(" %p", pc[j]);
    }
    cprintf("\n");
  101b48:	c7 04 24 9c 66 10 00 	movl   $0x10669c,(%esp)
  101b4f:	e8 cc eb ff ff       	call   100720 <cprintf>
  int i, j;
  struct proc *p;
  char *state;
  uint pc[10];

  for(i = 0; i < NPROC; i++){
  101b54:	83 c3 01             	add    $0x1,%ebx
  101b57:	81 fb 80 00 00 00    	cmp    $0x80,%ebx
  101b5d:	0f 84 95 00 00 00    	je     101bf8 <procdump+0xc8>
    p = &proc[i];
  101b63:	69 f3 98 00 00 00    	imul   $0x98,%ebx,%esi
  101b69:	81 c6 40 89 10 00    	add    $0x108940,%esi
    if(p->state == UNUSED)
  101b6f:	8b 46 0c             	mov    0xc(%esi),%eax
  101b72:	85 c0                	test   %eax,%eax
  101b74:	74 de                	je     101b54 <procdump+0x24>
      continue;
    if(p->state >= 0 && p->state < NELEM(states) && states[p->state])
  101b76:	83 f8 05             	cmp    $0x5,%eax
      state = states[p->state];
    else
      state = "???";
  101b79:	ba 7b 60 10 00       	mov    $0x10607b,%edx

  for(i = 0; i < NPROC; i++){
    p = &proc[i];
    if(p->state == UNUSED)
      continue;
    if(p->state >= 0 && p->state < NELEM(states) && states[p->state])
  101b7e:	77 11                	ja     101b91 <procdump+0x61>
  101b80:	8b 14 85 b4 60 10 00 	mov    0x1060b4(,%eax,4),%edx
      state = states[p->state];
    else
      state = "???";
  101b87:	b8 7b 60 10 00       	mov    $0x10607b,%eax
  101b8c:	85 d2                	test   %edx,%edx
  101b8e:	0f 44 d0             	cmove  %eax,%edx
    cprintf("%d %s %s", p->pid, state, p->name);
  101b91:	8d 86 88 00 00 00    	lea    0x88(%esi),%eax
  101b97:	89 44 24 0c          	mov    %eax,0xc(%esp)
  101b9b:	89 54 24 08          	mov    %edx,0x8(%esp)
  101b9f:	8b 46 10             	mov    0x10(%esi),%eax
  101ba2:	c7 04 24 7f 60 10 00 	movl   $0x10607f,(%esp)
  101ba9:	89 44 24 04          	mov    %eax,0x4(%esp)
  101bad:	e8 6e eb ff ff       	call   100720 <cprintf>
    if(p->state == SLEEPING){
  101bb2:	83 7e 0c 02          	cmpl   $0x2,0xc(%esi)
  101bb6:	75 90                	jne    101b48 <procdump+0x18>
      getcallerpcs((uint*)p->context.ebp+2, pc);
  101bb8:	89 6c 24 04          	mov    %ebp,0x4(%esp)
  101bbc:	8b 86 80 00 00 00    	mov    0x80(%esi),%eax
  101bc2:	89 ee                	mov    %ebp,%esi
  101bc4:	83 c0 08             	add    $0x8,%eax
  101bc7:	89 04 24             	mov    %eax,(%esp)
  101bca:	e8 d1 e5 ff ff       	call   1001a0 <getcallerpcs>
  101bcf:	90                   	nop
      for(j=0; j<10 && pc[j] != 0; j++)
  101bd0:	8b 06                	mov    (%esi),%eax
  101bd2:	85 c0                	test   %eax,%eax
  101bd4:	0f 84 6e ff ff ff    	je     101b48 <procdump+0x18>
        cprintf(" %p", pc[j]);
  101bda:	89 44 24 04          	mov    %eax,0x4(%esp)
  101bde:	83 c6 04             	add    $0x4,%esi
  101be1:	c7 04 24 ba 5f 10 00 	movl   $0x105fba,(%esp)
  101be8:	e8 33 eb ff ff       	call   100720 <cprintf>
    else
      state = "???";
    cprintf("%d %s %s", p->pid, state, p->name);
    if(p->state == SLEEPING){
      getcallerpcs((uint*)p->context.ebp+2, pc);
      for(j=0; j<10 && pc[j] != 0; j++)
  101bed:	39 fe                	cmp    %edi,%esi
  101bef:	75 df                	jne    101bd0 <procdump+0xa0>
  101bf1:	e9 52 ff ff ff       	jmp    101b48 <procdump+0x18>
  101bf6:	66 90                	xchg   %ax,%ax
        cprintf(" %p", pc[j]);
    }
    cprintf("\n");
  }
}
  101bf8:	83 c4 4c             	add    $0x4c,%esp
  101bfb:	5b                   	pop    %ebx
  101bfc:	5e                   	pop    %esi
  101bfd:	5f                   	pop    %edi
  101bfe:	5d                   	pop    %ebp
  101bff:	90                   	nop
  101c00:	c3                   	ret    
  101c01:	90                   	nop
  101c02:	90                   	nop
  101c03:	90                   	nop
  101c04:	90                   	nop
  101c05:	90                   	nop
  101c06:	90                   	nop
  101c07:	90                   	nop
  101c08:	90                   	nop
  101c09:	90                   	nop
  101c0a:	90                   	nop
  101c0b:	90                   	nop
  101c0c:	90                   	nop
  101c0d:	90                   	nop
  101c0e:	90                   	nop
  101c0f:	90                   	nop

00101c10 <ioapic_init>:
  ioapic->data = data;
}

void
ioapic_init(void)
{
  101c10:	56                   	push   %esi
  101c11:	53                   	push   %ebx
  101c12:	83 ec 14             	sub    $0x14,%esp
  int i, id, maxintr;

  if(!ismp)
  101c15:	a1 c0 d5 10 00       	mov    0x10d5c0,%eax
  101c1a:	85 c0                	test   %eax,%eax
  101c1c:	0f 84 82 00 00 00    	je     101ca4 <ioapic_init+0x94>
};

static uint
ioapic_read(int reg)
{
  ioapic->reg = reg;
  101c22:	c7 05 00 00 c0 fe 01 	movl   $0x1,0xfec00000
  101c29:	00 00 00 
  return ioapic->data;
  101c2c:	8b 35 10 00 c0 fe    	mov    0xfec00010,%esi
    return;

  ioapic = (volatile struct ioapic*)IOAPIC;
  maxintr = (ioapic_read(REG_VER) >> 16) & 0xFF;
  id = ioapic_read(REG_ID) >> 24;
  if(id != ioapic_id)
  101c32:	b8 00 00 c0 fe       	mov    $0xfec00000,%eax
};

static uint
ioapic_read(int reg)
{
  ioapic->reg = reg;
  101c37:	c7 05 00 00 c0 fe 00 	movl   $0x0,0xfec00000
  101c3e:	00 00 00 
  return ioapic->data;
  101c41:	8b 15 10 00 c0 fe    	mov    0xfec00010,%edx
    return;

  ioapic = (volatile struct ioapic*)IOAPIC;
  maxintr = (ioapic_read(REG_VER) >> 16) & 0xFF;
  id = ioapic_read(REG_ID) >> 24;
  if(id != ioapic_id)
  101c47:	0f b6 0d c4 d5 10 00 	movzbl 0x10d5c4,%ecx
  int i, id, maxintr;

  if(!ismp)
    return;

  ioapic = (volatile struct ioapic*)IOAPIC;
  101c4e:	c7 05 74 d5 10 00 00 	movl   $0xfec00000,0x10d574
  101c55:	00 c0 fe 
  maxintr = (ioapic_read(REG_VER) >> 16) & 0xFF;
  101c58:	c1 ee 10             	shr    $0x10,%esi
  id = ioapic_read(REG_ID) >> 24;
  101c5b:	c1 ea 18             	shr    $0x18,%edx

  if(!ismp)
    return;

  ioapic = (volatile struct ioapic*)IOAPIC;
  maxintr = (ioapic_read(REG_VER) >> 16) & 0xFF;
  101c5e:	81 e6 ff 00 00 00    	and    $0xff,%esi
  id = ioapic_read(REG_ID) >> 24;
  if(id != ioapic_id)
  101c64:	39 d1                	cmp    %edx,%ecx
  101c66:	74 11                	je     101c79 <ioapic_init+0x69>
    cprintf("ioapic_init: id isn't equal to ioapic_id; not a MP\n");
  101c68:	c7 04 24 cc 60 10 00 	movl   $0x1060cc,(%esp)
  101c6f:	e8 ac ea ff ff       	call   100720 <cprintf>
  101c74:	a1 74 d5 10 00       	mov    0x10d574,%eax
    return;

  ioapic = (volatile struct ioapic*)IOAPIC;
  maxintr = (ioapic_read(REG_VER) >> 16) & 0xFF;
  id = ioapic_read(REG_ID) >> 24;
  if(id != ioapic_id)
  101c79:	b9 10 00 00 00       	mov    $0x10,%ecx
  101c7e:	31 d2                	xor    %edx,%edx
  ioapic->reg = reg;
  ioapic->data = data;
}

void
ioapic_init(void)
  101c80:	8d 5a 20             	lea    0x20(%edx),%ebx
  if(id != ioapic_id)
    cprintf("ioapic_init: id isn't equal to ioapic_id; not a MP\n");

  // Mark all interrupts edge-triggered, active high, disabled,
  // and not routed to any CPUs.
  for(i = 0; i <= maxintr; i++){
  101c83:	83 c2 01             	add    $0x1,%edx
    ioapic_write(REG_TABLE+2*i, INT_DISABLED | (IRQ_OFFSET + i));
  101c86:	81 cb 00 00 01 00    	or     $0x10000,%ebx
}

static void
ioapic_write(int reg, uint data)
{
  ioapic->reg = reg;
  101c8c:	89 08                	mov    %ecx,(%eax)
  ioapic->data = data;
  101c8e:	89 58 10             	mov    %ebx,0x10(%eax)
}

void
ioapic_init(void)
  101c91:	8d 59 01             	lea    0x1(%ecx),%ebx
  if(id != ioapic_id)
    cprintf("ioapic_init: id isn't equal to ioapic_id; not a MP\n");

  // Mark all interrupts edge-triggered, active high, disabled,
  // and not routed to any CPUs.
  for(i = 0; i <= maxintr; i++){
  101c94:	83 c1 02             	add    $0x2,%ecx
  101c97:	39 d6                	cmp    %edx,%esi
}

static void
ioapic_write(int reg, uint data)
{
  ioapic->reg = reg;
  101c99:	89 18                	mov    %ebx,(%eax)
  ioapic->data = data;
  101c9b:	c7 40 10 00 00 00 00 	movl   $0x0,0x10(%eax)
  if(id != ioapic_id)
    cprintf("ioapic_init: id isn't equal to ioapic_id; not a MP\n");

  // Mark all interrupts edge-triggered, active high, disabled,
  // and not routed to any CPUs.
  for(i = 0; i <= maxintr; i++){
  101ca2:	7d dc                	jge    101c80 <ioapic_init+0x70>
    ioapic_write(REG_TABLE+2*i, INT_DISABLED | (IRQ_OFFSET + i));
    ioapic_write(REG_TABLE+2*i+1, 0);
  }
}
  101ca4:	83 c4 14             	add    $0x14,%esp
  101ca7:	5b                   	pop    %ebx
  101ca8:	5e                   	pop    %esi
  101ca9:	c3                   	ret    
  101caa:	8d b6 00 00 00 00    	lea    0x0(%esi),%esi

00101cb0 <ioapic_enable>:

void
ioapic_enable(int irq, int cpunum)
{
  if(!ismp)
  101cb0:	8b 15 c0 d5 10 00    	mov    0x10d5c0,%edx
  }
}

void
ioapic_enable(int irq, int cpunum)
{
  101cb6:	8b 44 24 04          	mov    0x4(%esp),%eax
  if(!ismp)
  101cba:	85 d2                	test   %edx,%edx
  101cbc:	74 20                	je     101cde <ioapic_enable+0x2e>
    return;

  // Mark interrupt edge-triggered, active high,
  // enabled, and routed to the given cpunum,
  // which happens to be that cpu's APIC ID.
  ioapic_write(REG_TABLE+2*irq, IRQ_OFFSET + irq);
  101cbe:	8d 48 20             	lea    0x20(%eax),%ecx
  101cc1:	8d 54 00 10          	lea    0x10(%eax,%eax,1),%edx
}

static void
ioapic_write(int reg, uint data)
{
  ioapic->reg = reg;
  101cc5:	a1 74 d5 10 00       	mov    0x10d574,%eax
  101cca:	89 10                	mov    %edx,(%eax)

  // Mark interrupt edge-triggered, active high,
  // enabled, and routed to the given cpunum,
  // which happens to be that cpu's APIC ID.
  ioapic_write(REG_TABLE+2*irq, IRQ_OFFSET + irq);
  ioapic_write(REG_TABLE+2*irq+1, cpunum << 24);
  101ccc:	83 c2 01             	add    $0x1,%edx

static void
ioapic_write(int reg, uint data)
{
  ioapic->reg = reg;
  ioapic->data = data;
  101ccf:	89 48 10             	mov    %ecx,0x10(%eax)

  // Mark interrupt edge-triggered, active high,
  // enabled, and routed to the given cpunum,
  // which happens to be that cpu's APIC ID.
  ioapic_write(REG_TABLE+2*irq, IRQ_OFFSET + irq);
  ioapic_write(REG_TABLE+2*irq+1, cpunum << 24);
  101cd2:	8b 4c 24 08          	mov    0x8(%esp),%ecx
}

static void
ioapic_write(int reg, uint data)
{
  ioapic->reg = reg;
  101cd6:	89 10                	mov    %edx,(%eax)

  // Mark interrupt edge-triggered, active high,
  // enabled, and routed to the given cpunum,
  // which happens to be that cpu's APIC ID.
  ioapic_write(REG_TABLE+2*irq, IRQ_OFFSET + irq);
  ioapic_write(REG_TABLE+2*irq+1, cpunum << 24);
  101cd8:	c1 e1 18             	shl    $0x18,%ecx

static void
ioapic_write(int reg, uint data)
{
  ioapic->reg = reg;
  ioapic->data = data;
  101cdb:	89 48 10             	mov    %ecx,0x10(%eax)
  101cde:	f3 c3                	repz ret 

00101ce0 <kfree>:
// which normally should have been returned by a
// call to kalloc(length).  (The exception is when
// initializing the allocator; see kinit above.)
void
kfree(char *v, int length)
{
  101ce0:	55                   	push   %ebp
  101ce1:	57                   	push   %edi
  101ce2:	56                   	push   %esi
  101ce3:	53                   	push   %ebx
  101ce4:	83 ec 1c             	sub    $0x1c,%esp
  101ce7:	8b 74 24 34          	mov    0x34(%esp),%esi
  101ceb:	8b 5c 24 30          	mov    0x30(%esp),%ebx
  struct run *r, *rend, **rp, *p, *pend;

  if(length <= 0 || length % PAGE)
  101cef:	85 f6                	test   %esi,%esi
  101cf1:	0f 8e d7 00 00 00    	jle    101dce <kfree+0xee>
  101cf7:	f7 c6 ff 0f 00 00    	test   $0xfff,%esi
  101cfd:	0f 85 cb 00 00 00    	jne    101dce <kfree+0xee>
    panic("kfree");

  // Fill with junk to catch dangling refs.
  memset(v, 1, length);
  101d03:	89 74 24 08          	mov    %esi,0x8(%esp)
  101d07:	c7 44 24 04 01 00 00 	movl   $0x1,0x4(%esp)
  101d0e:	00 
  101d0f:	89 1c 24             	mov    %ebx,(%esp)
  101d12:	e8 f9 f0 ff ff       	call   100e10 <memset>

  acquire(&kalloc_lock);
  101d17:	c7 04 24 80 d5 10 00 	movl   $0x10d580,(%esp)
  101d1e:	e8 4d e5 ff ff       	call   100270 <acquire>
  p = (struct run*)v;
  pend = (struct run*)(v + length);
  for(rp=&freelist; (r=*rp) != 0 && r <= pend; rp=&r->next){
  101d23:	a1 b4 d5 10 00       	mov    0x10d5b4,%eax
  101d28:	85 c0                	test   %eax,%eax
  101d2a:	74 57                	je     101d83 <kfree+0xa3>
  // Fill with junk to catch dangling refs.
  memset(v, 1, length);

  acquire(&kalloc_lock);
  p = (struct run*)v;
  pend = (struct run*)(v + length);
  101d2c:	8d 0c 33             	lea    (%ebx,%esi,1),%ecx
  for(rp=&freelist; (r=*rp) != 0 && r <= pend; rp=&r->next){
  101d2f:	39 c1                	cmp    %eax,%ecx
  101d31:	72 50                	jb     101d83 <kfree+0xa3>
    rend = (struct run*)((char*)r + r->length);
  101d33:	8b 78 04             	mov    0x4(%eax),%edi
    if(r <= p && p < rend)
  101d36:	39 c3                	cmp    %eax,%ebx

  acquire(&kalloc_lock);
  p = (struct run*)v;
  pend = (struct run*)(v + length);
  for(rp=&freelist; (r=*rp) != 0 && r <= pend; rp=&r->next){
    rend = (struct run*)((char*)r + r->length);
  101d38:	8d 14 38             	lea    (%eax,%edi,1),%edx
    if(r <= p && p < rend)
  101d3b:	0f 83 99 00 00 00    	jae    101dda <kfree+0xfa>
      panic("freeing free page");
    if(pend == r){  // p next to r: replace r with p
  101d41:	39 c1                	cmp    %eax,%ecx
  101d43:	75 1f                	jne    101d64 <kfree+0x84>
  101d45:	eb 5d                	jmp    101da4 <kfree+0xc4>
  101d47:	90                   	nop
  memset(v, 1, length);

  acquire(&kalloc_lock);
  p = (struct run*)v;
  pend = (struct run*)(v + length);
  for(rp=&freelist; (r=*rp) != 0 && r <= pend; rp=&r->next){
  101d48:	89 c5                	mov    %eax,%ebp
  101d4a:	8b 00                	mov    (%eax),%eax
  101d4c:	85 c0                	test   %eax,%eax
  101d4e:	66 90                	xchg   %ax,%ax
  101d50:	74 36                	je     101d88 <kfree+0xa8>
  101d52:	39 c1                	cmp    %eax,%ecx
  101d54:	72 32                	jb     101d88 <kfree+0xa8>
    rend = (struct run*)((char*)r + r->length);
  101d56:	8b 78 04             	mov    0x4(%eax),%edi
  101d59:	8d 14 38             	lea    (%eax,%edi,1),%edx
    if(r <= p && p < rend)
  101d5c:	39 d3                	cmp    %edx,%ebx
  101d5e:	72 5e                	jb     101dbe <kfree+0xde>
      panic("freeing free page");
    if(pend == r){  // p next to r: replace r with p
  101d60:	39 c1                	cmp    %eax,%ecx
  101d62:	74 4c                	je     101db0 <kfree+0xd0>
      p->length = length + r->length;
      p->next = r->next;
      *rp = p;
      goto out;
    }
    if(rend == p){  // r next to p: replace p with r
  101d64:	39 d3                	cmp    %edx,%ebx
  101d66:	75 e0                	jne    101d48 <kfree+0x68>
      r->length += length;
      if(r->next && r->next == pend){  // r now next to r->next?
  101d68:	8b 10                	mov    (%eax),%edx
      p->next = r->next;
      *rp = p;
      goto out;
    }
    if(rend == p){  // r next to p: replace p with r
      r->length += length;
  101d6a:	01 fe                	add    %edi,%esi
  101d6c:	89 70 04             	mov    %esi,0x4(%eax)
      if(r->next && r->next == pend){  // r now next to r->next?
  101d6f:	85 d2                	test   %edx,%edx
  101d71:	74 1d                	je     101d90 <kfree+0xb0>
  101d73:	39 d1                	cmp    %edx,%ecx
  101d75:	75 19                	jne    101d90 <kfree+0xb0>
        r->length += r->next->length;
        r->next = r->next->next;
  101d77:	8b 11                	mov    (%ecx),%edx
      goto out;
    }
    if(rend == p){  // r next to p: replace p with r
      r->length += length;
      if(r->next && r->next == pend){  // r now next to r->next?
        r->length += r->next->length;
  101d79:	03 71 04             	add    0x4(%ecx),%esi
        r->next = r->next->next;
  101d7c:	89 10                	mov    %edx,(%eax)
      goto out;
    }
    if(rend == p){  // r next to p: replace p with r
      r->length += length;
      if(r->next && r->next == pend){  // r now next to r->next?
        r->length += r->next->length;
  101d7e:	89 70 04             	mov    %esi,0x4(%eax)
  101d81:	eb 0d                	jmp    101d90 <kfree+0xb0>
  memset(v, 1, length);

  acquire(&kalloc_lock);
  p = (struct run*)v;
  pend = (struct run*)(v + length);
  for(rp=&freelist; (r=*rp) != 0 && r <= pend; rp=&r->next){
  101d83:	bd b4 d5 10 00       	mov    $0x10d5b4,%ebp
      }
      goto out;
    }
  }
  // Insert p before r in list.
  p->length = length;
  101d88:	89 73 04             	mov    %esi,0x4(%ebx)
  p->next = r;
  101d8b:	89 03                	mov    %eax,(%ebx)
  *rp = p;
  101d8d:	89 5d 00             	mov    %ebx,0x0(%ebp)

 out:
  release(&kalloc_lock);
  101d90:	c7 44 24 30 80 d5 10 	movl   $0x10d580,0x30(%esp)
  101d97:	00 
}
  101d98:	83 c4 1c             	add    $0x1c,%esp
  101d9b:	5b                   	pop    %ebx
  101d9c:	5e                   	pop    %esi
  101d9d:	5f                   	pop    %edi
  101d9e:	5d                   	pop    %ebp
  p->length = length;
  p->next = r;
  *rp = p;

 out:
  release(&kalloc_lock);
  101d9f:	e9 bc e5 ff ff       	jmp    100360 <release>
  memset(v, 1, length);

  acquire(&kalloc_lock);
  p = (struct run*)v;
  pend = (struct run*)(v + length);
  for(rp=&freelist; (r=*rp) != 0 && r <= pend; rp=&r->next){
  101da4:	bd b4 d5 10 00       	mov    $0x10d5b4,%ebp
  101da9:	8d b4 26 00 00 00 00 	lea    0x0(%esi,%eiz,1),%esi
    rend = (struct run*)((char*)r + r->length);
    if(r <= p && p < rend)
      panic("freeing free page");
    if(pend == r){  // p next to r: replace r with p
      p->length = length + r->length;
      p->next = r->next;
  101db0:	8b 00                	mov    (%eax),%eax
  for(rp=&freelist; (r=*rp) != 0 && r <= pend; rp=&r->next){
    rend = (struct run*)((char*)r + r->length);
    if(r <= p && p < rend)
      panic("freeing free page");
    if(pend == r){  // p next to r: replace r with p
      p->length = length + r->length;
  101db2:	01 fe                	add    %edi,%esi
  101db4:	89 73 04             	mov    %esi,0x4(%ebx)
      p->next = r->next;
  101db7:	89 03                	mov    %eax,(%ebx)
      *rp = p;
  101db9:	89 5d 00             	mov    %ebx,0x0(%ebp)
      goto out;
  101dbc:	eb d2                	jmp    101d90 <kfree+0xb0>
  acquire(&kalloc_lock);
  p = (struct run*)v;
  pend = (struct run*)(v + length);
  for(rp=&freelist; (r=*rp) != 0 && r <= pend; rp=&r->next){
    rend = (struct run*)((char*)r + r->length);
    if(r <= p && p < rend)
  101dbe:	39 c3                	cmp    %eax,%ebx
  101dc0:	72 9e                	jb     101d60 <kfree+0x80>
      panic("freeing free page");
  101dc2:	c7 04 24 06 61 10 00 	movl   $0x106106,(%esp)
  101dc9:	e8 e2 ec ff ff       	call   100ab0 <panic>
kfree(char *v, int length)
{
  struct run *r, *rend, **rp, *p, *pend;

  if(length <= 0 || length % PAGE)
    panic("kfree");
  101dce:	c7 04 24 00 61 10 00 	movl   $0x106100,(%esp)
  101dd5:	e8 d6 ec ff ff       	call   100ab0 <panic>
  acquire(&kalloc_lock);
  p = (struct run*)v;
  pend = (struct run*)(v + length);
  for(rp=&freelist; (r=*rp) != 0 && r <= pend; rp=&r->next){
    rend = (struct run*)((char*)r + r->length);
    if(r <= p && p < rend)
  101dda:	39 d3                	cmp    %edx,%ebx
  101ddc:	0f 83 5f ff ff ff    	jae    101d41 <kfree+0x61>
  101de2:	eb de                	jmp    101dc2 <kfree+0xe2>
  101de4:	8d b6 00 00 00 00    	lea    0x0(%esi),%esi
  101dea:	8d bf 00 00 00 00    	lea    0x0(%edi),%edi

00101df0 <kinit>:
// This code cheats by just considering one megabyte of
// pages after _end.  Real systems would determine the
// amount of memory available in the system and use it all.
void
kinit(void)
{
  101df0:	83 ec 1c             	sub    $0x1c,%esp
  extern int end;
  uint mem;
  char *start;

  initlock(&kalloc_lock, "kalloc");
  101df3:	c7 44 24 04 18 61 10 	movl   $0x106118,0x4(%esp)
  101dfa:	00 
  101dfb:	c7 04 24 80 d5 10 00 	movl   $0x10d580,(%esp)
  101e02:	e8 79 e3 ff ff       	call   100180 <initlock>
  start = (char*) &end;
  start = (char*) (((uint)start + PAGE) & ~(PAGE-1));
  mem = 256; // assume computer has 256 pages of RAM
  cprintf("mem = %d\n", mem * PAGE);
  101e07:	c7 44 24 04 00 00 10 	movl   $0x100000,0x4(%esp)
  101e0e:	00 
  101e0f:	c7 04 24 1f 61 10 00 	movl   $0x10611f,(%esp)
  101e16:	e8 05 e9 ff ff       	call   100720 <cprintf>
  uint mem;
  char *start;

  initlock(&kalloc_lock, "kalloc");
  start = (char*) &end;
  start = (char*) (((uint)start + PAGE) & ~(PAGE-1));
  101e1b:	b8 84 39 11 00       	mov    $0x113984,%eax
  101e20:	25 00 f0 ff ff       	and    $0xfffff000,%eax
  mem = 256; // assume computer has 256 pages of RAM
  cprintf("mem = %d\n", mem * PAGE);
  kfree(start, mem * PAGE);
  101e25:	c7 44 24 04 00 00 10 	movl   $0x100000,0x4(%esp)
  101e2c:	00 
  101e2d:	89 04 24             	mov    %eax,(%esp)
  101e30:	e8 ab fe ff ff       	call   101ce0 <kfree>
}
  101e35:	83 c4 1c             	add    $0x1c,%esp
  101e38:	c3                   	ret    
  101e39:	8d b4 26 00 00 00 00 	lea    0x0(%esi,%eiz,1),%esi

00101e40 <kalloc>:
// Returns a kernel-segment pointer.
// Returns 0 if the memory cannot be allocated.
// 这个函数操作链表有搞头，有深度，我靠
char*
kalloc(int n)
{
  101e40:	53                   	push   %ebx
  101e41:	83 ec 28             	sub    $0x28,%esp
  101e44:	8b 5c 24 30          	mov    0x30(%esp),%ebx
  char *p;
  struct run *r, **rp;

  if(n % PAGE || n <= 0)
  101e48:	f7 c3 ff 0f 00 00    	test   $0xfff,%ebx
  101e4e:	0f 85 a1 00 00 00    	jne    101ef5 <kalloc+0xb5>
  101e54:	85 db                	test   %ebx,%ebx
  101e56:	0f 8e 99 00 00 00    	jle    101ef5 <kalloc+0xb5>
    panic("kalloc");

  acquire(&kalloc_lock);
  101e5c:	c7 04 24 80 d5 10 00 	movl   $0x10d580,(%esp)
  101e63:	e8 08 e4 ff ff       	call   100270 <acquire>
  for(rp=&freelist; (r=*rp) != 0; rp=&r->next){
  101e68:	a1 b4 d5 10 00       	mov    0x10d5b4,%eax
  101e6d:	85 c0                	test   %eax,%eax
  101e6f:	74 3f                	je     101eb0 <kalloc+0x70>
    if(r->length == n){
  101e71:	8b 50 04             	mov    0x4(%eax),%edx
  101e74:	39 da                	cmp    %ebx,%edx
  101e76:	75 17                	jne    101e8f <kalloc+0x4f>
  101e78:	eb 55                	jmp    101ecf <kalloc+0x8f>
  101e7a:	8d b6 00 00 00 00    	lea    0x0(%esi),%esi

  if(n % PAGE || n <= 0)
    panic("kalloc");

  acquire(&kalloc_lock);
  for(rp=&freelist; (r=*rp) != 0; rp=&r->next){
  101e80:	89 c1                	mov    %eax,%ecx
  101e82:	8b 00                	mov    (%eax),%eax
  101e84:	85 c0                	test   %eax,%eax
  101e86:	74 28                	je     101eb0 <kalloc+0x70>
    if(r->length == n){
  101e88:	8b 50 04             	mov    0x4(%eax),%edx
  101e8b:	39 da                	cmp    %ebx,%edx
  101e8d:	74 49                	je     101ed8 <kalloc+0x98>
      *rp = r->next;
      release(&kalloc_lock);
      return (char*)r;
    }
    if(r->length > n){
  101e8f:	39 d3                	cmp    %edx,%ebx
  101e91:	7d ed                	jge    101e80 <kalloc+0x40>
      r->length -= n;
  101e93:	29 da                	sub    %ebx,%edx
  101e95:	89 50 04             	mov    %edx,0x4(%eax)
      p = (char*)r + r->length;
  101e98:	8d 1c 10             	lea    (%eax,%edx,1),%ebx
      release(&kalloc_lock);
  101e9b:	c7 04 24 80 d5 10 00 	movl   $0x10d580,(%esp)
  101ea2:	e8 b9 e4 ff ff       	call   100360 <release>
  }
  release(&kalloc_lock);

  cprintf("kalloc: out of memory\n");
  return 0;
}
  101ea7:	83 c4 28             	add    $0x28,%esp
    }
    if(r->length > n){
      r->length -= n;
      p = (char*)r + r->length;
      release(&kalloc_lock);
      return p;
  101eaa:	89 d8                	mov    %ebx,%eax
  }
  release(&kalloc_lock);

  cprintf("kalloc: out of memory\n");
  return 0;
}
  101eac:	5b                   	pop    %ebx
  101ead:	c3                   	ret    
  101eae:	66 90                	xchg   %ax,%ax
      p = (char*)r + r->length;
      release(&kalloc_lock);
      return p;
    }
  }
  release(&kalloc_lock);
  101eb0:	c7 04 24 80 d5 10 00 	movl   $0x10d580,(%esp)
  101eb7:	e8 a4 e4 ff ff       	call   100360 <release>

  cprintf("kalloc: out of memory\n");
  101ebc:	c7 04 24 29 61 10 00 	movl   $0x106129,(%esp)
  101ec3:	e8 58 e8 ff ff       	call   100720 <cprintf>
  return 0;
}
  101ec8:	83 c4 28             	add    $0x28,%esp
    }
  }
  release(&kalloc_lock);

  cprintf("kalloc: out of memory\n");
  return 0;
  101ecb:	31 c0                	xor    %eax,%eax
}
  101ecd:	5b                   	pop    %ebx
  101ece:	c3                   	ret    

  if(n % PAGE || n <= 0)
    panic("kalloc");

  acquire(&kalloc_lock);
  for(rp=&freelist; (r=*rp) != 0; rp=&r->next){
  101ecf:	b9 b4 d5 10 00       	mov    $0x10d5b4,%ecx
  101ed4:	8d 74 26 00          	lea    0x0(%esi,%eiz,1),%esi
    if(r->length == n){
      *rp = r->next;
  101ed8:	8b 10                	mov    (%eax),%edx
  101eda:	89 11                	mov    %edx,(%ecx)
      release(&kalloc_lock);
  101edc:	c7 04 24 80 d5 10 00 	movl   $0x10d580,(%esp)
  101ee3:	89 44 24 1c          	mov    %eax,0x1c(%esp)
  101ee7:	e8 74 e4 ff ff       	call   100360 <release>
      return (char*)r;
  101eec:	8b 44 24 1c          	mov    0x1c(%esp),%eax
  }
  release(&kalloc_lock);

  cprintf("kalloc: out of memory\n");
  return 0;
}
  101ef0:	83 c4 28             	add    $0x28,%esp
  101ef3:	5b                   	pop    %ebx
  101ef4:	c3                   	ret    
{
  char *p;
  struct run *r, **rp;

  if(n % PAGE || n <= 0)
    panic("kalloc");
  101ef5:	c7 04 24 18 61 10 00 	movl   $0x106118,(%esp)
  101efc:	e8 af eb ff ff       	call   100ab0 <panic>
  101f01:	90                   	nop
  101f02:	90                   	nop
  101f03:	90                   	nop
  101f04:	90                   	nop
  101f05:	90                   	nop
  101f06:	90                   	nop
  101f07:	90                   	nop
  101f08:	90                   	nop
  101f09:	90                   	nop
  101f0a:	90                   	nop
  101f0b:	90                   	nop
  101f0c:	90                   	nop
  101f0d:	90                   	nop
  101f0e:	90                   	nop
  101f0f:	90                   	nop

00101f10 <mp_search1>:
}

// Look for an MP structure in the len bytes at addr.
static struct mp*
mp_search1(uchar *addr, int len)
{
  101f10:	56                   	push   %esi
  101f11:	53                   	push   %ebx

  e = addr+len;
  for(p = addr; p < e; p += sizeof(struct mp))
    if(memcmp(p, "_MP_", 4) == 0 && sum(p, sizeof(struct mp)) == 0)
      return (struct mp*)p;
  return 0;
  101f12:	31 db                	xor    %ebx,%ebx
static struct mp*
mp_search1(uchar *addr, int len)
{
  uchar *e, *p;

  e = addr+len;
  101f14:	8d 34 10             	lea    (%eax,%edx,1),%esi
}

// Look for an MP structure in the len bytes at addr.
static struct mp*
mp_search1(uchar *addr, int len)
{
  101f17:	83 ec 14             	sub    $0x14,%esp
  uchar *e, *p;

  e = addr+len;
  for(p = addr; p < e; p += sizeof(struct mp))
  101f1a:	39 f0                	cmp    %esi,%eax
  101f1c:	73 3d                	jae    101f5b <mp_search1+0x4b>
  101f1e:	89 c3                	mov    %eax,%ebx
    if(memcmp(p, "_MP_", 4) == 0 && sum(p, sizeof(struct mp)) == 0)
  101f20:	c7 44 24 08 04 00 00 	movl   $0x4,0x8(%esp)
  101f27:	00 
  101f28:	c7 44 24 04 40 61 10 	movl   $0x106140,0x4(%esp)
  101f2f:	00 
  101f30:	89 1c 24             	mov    %ebx,(%esp)
  101f33:	e8 08 ef ff ff       	call   100e40 <memcmp>
  101f38:	85 c0                	test   %eax,%eax
  101f3a:	75 16                	jne    101f52 <mp_search1+0x42>
  101f3c:	31 d2                	xor    %edx,%edx
  101f3e:	66 90                	xchg   %ax,%ax
{
  int i, sum;

  sum = 0;
  for(i=0; i<len; i++)
    sum += addr[i];
  101f40:	0f b6 0c 03          	movzbl (%ebx,%eax,1),%ecx
sum(uchar *addr, int len)
{
  int i, sum;

  sum = 0;
  for(i=0; i<len; i++)
  101f44:	83 c0 01             	add    $0x1,%eax
    sum += addr[i];
  101f47:	01 ca                	add    %ecx,%edx
sum(uchar *addr, int len)
{
  int i, sum;

  sum = 0;
  for(i=0; i<len; i++)
  101f49:	83 f8 10             	cmp    $0x10,%eax
  101f4c:	75 f2                	jne    101f40 <mp_search1+0x30>
{
  uchar *e, *p;

  e = addr+len;
  for(p = addr; p < e; p += sizeof(struct mp))
    if(memcmp(p, "_MP_", 4) == 0 && sum(p, sizeof(struct mp)) == 0)
  101f4e:	84 d2                	test   %dl,%dl
  101f50:	74 09                	je     101f5b <mp_search1+0x4b>
mp_search1(uchar *addr, int len)
{
  uchar *e, *p;

  e = addr+len;
  for(p = addr; p < e; p += sizeof(struct mp))
  101f52:	83 c3 10             	add    $0x10,%ebx
  101f55:	39 de                	cmp    %ebx,%esi
  101f57:	77 c7                	ja     101f20 <mp_search1+0x10>
    if(memcmp(p, "_MP_", 4) == 0 && sum(p, sizeof(struct mp)) == 0)
      return (struct mp*)p;
  return 0;
  101f59:	31 db                	xor    %ebx,%ebx
}
  101f5b:	83 c4 14             	add    $0x14,%esp
  101f5e:	89 d8                	mov    %ebx,%eax
  101f60:	5b                   	pop    %ebx
  101f61:	5e                   	pop    %esi
  101f62:	c3                   	ret    
  101f63:	8d b6 00 00 00 00    	lea    0x0(%esi),%esi
  101f69:	8d bc 27 00 00 00 00 	lea    0x0(%edi,%eiz,1),%edi

00101f70 <mp_bcpu>:
uchar ioapic_id;

int
mp_bcpu(void)
{
  return bcpu-cpus;
  101f70:	a1 1c 88 10 00       	mov    0x10881c,%eax
  101f75:	2d e0 d5 10 00       	sub    $0x10d5e0,%eax
  101f7a:	c1 f8 02             	sar    $0x2,%eax
  101f7d:	69 c0 fb fa fa fa    	imul   $0xfafafafb,%eax,%eax
}
  101f83:	c3                   	ret    
  101f84:	8d b6 00 00 00 00    	lea    0x0(%esi),%esi
  101f8a:	8d bf 00 00 00 00    	lea    0x0(%edi),%edi

00101f90 <mp_init>:
  return conf;
}

void
mp_init(void)
{
  101f90:	55                   	push   %ebp
  101f91:	57                   	push   %edi
  101f92:	56                   	push   %esi
  101f93:	53                   	push   %ebx
  101f94:	83 ec 2c             	sub    $0x2c,%esp
  uchar *bda;
  uint p;
  struct mp *mp;

  bda = (uchar*)0x400;
  if((p = ((bda[0x0F]<<8)|bda[0x0E]) << 4)){
  101f97:	0f b6 15 0e 04 00 00 	movzbl 0x40e,%edx
  struct mp *mp;
  struct mpconf *conf;
  struct mpproc *proc;
  struct mpioapic *ioapic;

  bcpu = &cpus[ncpu];
  101f9e:	69 05 40 dc 10 00 cc 	imul   $0xcc,0x10dc40,%eax
  101fa5:	00 00 00 
  101fa8:	05 e0 d5 10 00       	add    $0x10d5e0,%eax
  101fad:	a3 1c 88 10 00       	mov    %eax,0x10881c
  uchar *bda;
  uint p;
  struct mp *mp;

  bda = (uchar*)0x400;
  if((p = ((bda[0x0F]<<8)|bda[0x0E]) << 4)){
  101fb2:	0f b6 05 0f 04 00 00 	movzbl 0x40f,%eax
  101fb9:	c1 e0 08             	shl    $0x8,%eax
  101fbc:	09 d0                	or     %edx,%eax
  101fbe:	c1 e0 04             	shl    $0x4,%eax
  101fc1:	85 c0                	test   %eax,%eax
  101fc3:	75 1b                	jne    101fe0 <mp_init+0x50>
    if((mp = mp_search1((uchar*)p, 1024)))
      return mp;
  } else {
    p = ((bda[0x14]<<8)|bda[0x13])*1024;
  101fc5:	0f b6 05 14 04 00 00 	movzbl 0x414,%eax
  101fcc:	0f b6 15 13 04 00 00 	movzbl 0x413,%edx
  101fd3:	c1 e0 08             	shl    $0x8,%eax
  101fd6:	09 d0                	or     %edx,%eax
  101fd8:	c1 e0 0a             	shl    $0xa,%eax
    if((mp = mp_search1((uchar*)p-1024, 1024)))
  101fdb:	2d 00 04 00 00       	sub    $0x400,%eax
  101fe0:	ba 00 04 00 00       	mov    $0x400,%edx
  101fe5:	e8 26 ff ff ff       	call   101f10 <mp_search1>
  101fea:	85 c0                	test   %eax,%eax
  101fec:	89 c3                	mov    %eax,%ebx
  101fee:	0f 84 4c 01 00 00    	je     102140 <mp_init+0x1b0>
mp_config(struct mp **pmp)
{
  struct mpconf *conf;
  struct mp *mp;

  if((mp = mp_search()) == 0 || mp->physaddr == 0)
  101ff4:	8b 73 04             	mov    0x4(%ebx),%esi
  101ff7:	85 f6                	test   %esi,%esi
  101ff9:	0f 84 e2 00 00 00    	je     1020e1 <mp_init+0x151>
    return 0;
  conf = (struct mpconf*)mp->physaddr;
  if(memcmp(conf, "PCMP", 4) != 0)
  101fff:	c7 44 24 08 04 00 00 	movl   $0x4,0x8(%esp)
  102006:	00 
  102007:	c7 44 24 04 45 61 10 	movl   $0x106145,0x4(%esp)
  10200e:	00 
  10200f:	89 34 24             	mov    %esi,(%esp)
  102012:	e8 29 ee ff ff       	call   100e40 <memcmp>
  102017:	85 c0                	test   %eax,%eax
  102019:	0f 85 c2 00 00 00    	jne    1020e1 <mp_init+0x151>
    return 0;
  if(conf->version != 1 && conf->version != 4)
  10201f:	0f b6 46 06          	movzbl 0x6(%esi),%eax
  102023:	3c 04                	cmp    $0x4,%al
  102025:	0f 85 35 01 00 00    	jne    102160 <mp_init+0x1d0>
    return 0;
  if(sum((uchar*)conf, conf->length) != 0)
  10202b:	0f b7 56 04          	movzwl 0x4(%esi),%edx
sum(uchar *addr, int len)
{
  int i, sum;

  sum = 0;
  for(i=0; i<len; i++)
  10202f:	85 d2                	test   %edx,%edx
  102031:	74 1a                	je     10204d <mp_init+0xbd>
  102033:	31 c9                	xor    %ecx,%ecx
  102035:	31 c0                	xor    %eax,%eax
  102037:	90                   	nop
    sum += addr[i];
  102038:	0f b6 3c 06          	movzbl (%esi,%eax,1),%edi
sum(uchar *addr, int len)
{
  int i, sum;

  sum = 0;
  for(i=0; i<len; i++)
  10203c:	83 c0 01             	add    $0x1,%eax
    sum += addr[i];
  10203f:	01 f9                	add    %edi,%ecx
sum(uchar *addr, int len)
{
  int i, sum;

  sum = 0;
  for(i=0; i<len; i++)
  102041:	39 c2                	cmp    %eax,%edx
  102043:	7f f3                	jg     102038 <mp_init+0xa8>
  conf = (struct mpconf*)mp->physaddr;
  if(memcmp(conf, "PCMP", 4) != 0)
    return 0;
  if(conf->version != 1 && conf->version != 4)
    return 0;
  if(sum((uchar*)conf, conf->length) != 0)
  102045:	84 c9                	test   %cl,%cl
  102047:	0f 85 94 00 00 00    	jne    1020e1 <mp_init+0x151>
  bcpu = &cpus[ncpu];
  if((conf = mp_config(&mp)) == 0)
    return;

  ismp = 1;
  lapic = (uint*)conf->lapicaddr;
  10204d:	8b 46 24             	mov    0x24(%esi),%eax

  for(p=(uchar*)(conf+1), e=(uchar*)conf+conf->length; p<e; ){
  102050:	01 f2                	add    %esi,%edx

  bcpu = &cpus[ncpu];
  if((conf = mp_config(&mp)) == 0)
    return;

  ismp = 1;
  102052:	c7 05 c0 d5 10 00 01 	movl   $0x1,0x10d5c0
  102059:	00 00 00 
  lapic = (uint*)conf->lapicaddr;
  10205c:	a3 20 89 10 00       	mov    %eax,0x108920

  for(p=(uchar*)(conf+1), e=(uchar*)conf+conf->length; p<e; ){
  102061:	8d 46 2c             	lea    0x2c(%esi),%eax
  102064:	39 d0                	cmp    %edx,%eax
  102066:	73 61                	jae    1020c9 <mp_init+0x139>
  102068:	8b 0d 1c 88 10 00    	mov    0x10881c,%ecx
  10206e:	89 5c 24 1c          	mov    %ebx,0x1c(%esp)
    switch(*p){
  102072:	0f b6 30             	movzbl (%eax),%esi
  102075:	89 f3                	mov    %esi,%ebx
  102077:	80 fb 04             	cmp    $0x4,%bl
  10207a:	76 2c                	jbe    1020a8 <mp_init+0x118>
    case MPIOINTR:
    case MPLINTR:
      p += 8;
      continue;
    default:
      cprintf("mp_init: unknown config type %x\n", *p);
  10207c:	81 e6 ff 00 00 00    	and    $0xff,%esi
  102082:	89 74 24 04          	mov    %esi,0x4(%esp)
  102086:	c7 04 24 54 61 10 00 	movl   $0x106154,(%esp)
      continue;
    case MPBUS:
    case MPIOINTR:
    case MPLINTR:
      p += 8;
      continue;
  10208d:	89 0d 1c 88 10 00    	mov    %ecx,0x10881c
    default:
      cprintf("mp_init: unknown config type %x\n", *p);
  102093:	e8 88 e6 ff ff       	call   100720 <cprintf>
      panic("mp_init");
  102098:	c7 04 24 4a 61 10 00 	movl   $0x10614a,(%esp)
  10209f:	e8 0c ea ff ff       	call   100ab0 <panic>
  1020a4:	8d 74 26 00          	lea    0x0(%esi,%eiz,1),%esi

  ismp = 1;
  lapic = (uint*)conf->lapicaddr;

  for(p=(uchar*)(conf+1), e=(uchar*)conf+conf->length; p<e; ){
    switch(*p){
  1020a8:	81 e6 ff 00 00 00    	and    $0xff,%esi
  1020ae:	ff 24 b5 78 61 10 00 	jmp    *0x106178(,%esi,4)
  1020b5:	8d 76 00             	lea    0x0(%esi),%esi
      p += sizeof(struct mpioapic);
      continue;
    case MPBUS:
    case MPIOINTR:
    case MPLINTR:
      p += 8;
  1020b8:	83 c0 08             	add    $0x8,%eax
    return;

  ismp = 1;
  lapic = (uint*)conf->lapicaddr;

  for(p=(uchar*)(conf+1), e=(uchar*)conf+conf->length; p<e; ){
  1020bb:	39 c2                	cmp    %eax,%edx
  1020bd:	77 b3                	ja     102072 <mp_init+0xe2>
  1020bf:	8b 5c 24 1c          	mov    0x1c(%esp),%ebx
  1020c3:	89 0d 1c 88 10 00    	mov    %ecx,0x10881c
      cprintf("mp_init: unknown config type %x\n", *p);
      panic("mp_init");
    }
  }

  if(mp->imcrp){
  1020c9:	80 7b 0c 00          	cmpb   $0x0,0xc(%ebx)
  1020cd:	74 12                	je     1020e1 <mp_init+0x151>


static inline void
outb(ushort port, uchar data)
{
  asm volatile("out %0,%1" : : "a" (data), "d" (port));
  1020cf:	ba 22 00 00 00       	mov    $0x22,%edx
  1020d4:	b8 70 00 00 00       	mov    $0x70,%eax
  1020d9:	ee                   	out    %al,(%dx)
static inline uchar
inb(ushort port)
{
  uchar data;

  asm volatile("in %1,%0" : "=a" (data) : "d" (port));
  1020da:	b2 23                	mov    $0x23,%dl
  1020dc:	ec                   	in     (%dx),%al
    // Bochs doesn't support IMCR, so this doesn't run on Bochs.
    // But it would on real hardware.
    outb(0x22, 0x70);   // Select IMCR
    outb(0x23, inb(0x23) | 1);  // Mask external interrupts.
  1020dd:	83 c8 01             	or     $0x1,%eax


static inline void
outb(ushort port, uchar data)
{
  asm volatile("out %0,%1" : : "a" (data), "d" (port));
  1020e0:	ee                   	out    %al,(%dx)
  }
}
  1020e1:	83 c4 2c             	add    $0x2c,%esp
  1020e4:	5b                   	pop    %ebx
  1020e5:	5e                   	pop    %esi
  1020e6:	5f                   	pop    %edi
  1020e7:	5d                   	pop    %ebp
  1020e8:	c3                   	ret    
  1020e9:	8d b4 26 00 00 00 00 	lea    0x0(%esi,%eiz,1),%esi

  for(p=(uchar*)(conf+1), e=(uchar*)conf+conf->length; p<e; ){
    switch(*p){
    case MPPROC:
      proc = (struct mpproc*)p;
      cpus[ncpu].apicid = proc->apicid;
  1020f0:	8b 35 40 dc 10 00    	mov    0x10dc40,%esi
  1020f6:	0f b6 58 01          	movzbl 0x1(%eax),%ebx
  1020fa:	69 fe cc 00 00 00    	imul   $0xcc,%esi,%edi
  102100:	88 9f e0 d5 10 00    	mov    %bl,0x10d5e0(%edi)
  102106:	8d af e0 d5 10 00    	lea    0x10d5e0(%edi),%ebp
      if(proc->flags & MPBOOT)
        bcpu = &cpus[ncpu];
  10210c:	f6 40 03 02          	testb  $0x2,0x3(%eax)
  102110:	0f 45 cd             	cmovne %ebp,%ecx
      ncpu++;
  102113:	83 c6 01             	add    $0x1,%esi
  102116:	89 35 40 dc 10 00    	mov    %esi,0x10dc40
      p += sizeof(struct mpproc);
  10211c:	83 c0 14             	add    $0x14,%eax
      continue;
  10211f:	eb 9a                	jmp    1020bb <mp_init+0x12b>
  102121:	8d b4 26 00 00 00 00 	lea    0x0(%esi,%eiz,1),%esi
    case MPIOAPIC:
      ioapic = (struct mpioapic*)p;
      ioapic_id = ioapic->apicno;
  102128:	0f b6 70 01          	movzbl 0x1(%eax),%esi
      p += sizeof(struct mpioapic);
  10212c:	83 c0 08             	add    $0x8,%eax
      ncpu++;
      p += sizeof(struct mpproc);
      continue;
    case MPIOAPIC:
      ioapic = (struct mpioapic*)p;
      ioapic_id = ioapic->apicno;
  10212f:	89 f3                	mov    %esi,%ebx
  102131:	88 1d c4 d5 10 00    	mov    %bl,0x10d5c4
      p += sizeof(struct mpioapic);
      continue;
  102137:	eb 82                	jmp    1020bb <mp_init+0x12b>
  102139:	8d b4 26 00 00 00 00 	lea    0x0(%esi,%eiz,1),%esi
  } else {
    p = ((bda[0x14]<<8)|bda[0x13])*1024;
    if((mp = mp_search1((uchar*)p-1024, 1024)))
      return mp;
  }
  return mp_search1((uchar*)0xF0000, 0x10000);
  102140:	ba 00 00 01 00       	mov    $0x10000,%edx
  102145:	b8 00 00 0f 00       	mov    $0xf0000,%eax
  10214a:	e8 c1 fd ff ff       	call   101f10 <mp_search1>
mp_config(struct mp **pmp)
{
  struct mpconf *conf;
  struct mp *mp;

  if((mp = mp_search()) == 0 || mp->physaddr == 0)
  10214f:	85 c0                	test   %eax,%eax
  } else {
    p = ((bda[0x14]<<8)|bda[0x13])*1024;
    if((mp = mp_search1((uchar*)p-1024, 1024)))
      return mp;
  }
  return mp_search1((uchar*)0xF0000, 0x10000);
  102151:	89 c3                	mov    %eax,%ebx
mp_config(struct mp **pmp)
{
  struct mpconf *conf;
  struct mp *mp;

  if((mp = mp_search()) == 0 || mp->physaddr == 0)
  102153:	0f 85 9b fe ff ff    	jne    101ff4 <mp_init+0x64>
  102159:	eb 86                	jmp    1020e1 <mp_init+0x151>
  10215b:	90                   	nop
  10215c:	8d 74 26 00          	lea    0x0(%esi,%eiz,1),%esi
    return 0;
  conf = (struct mpconf*)mp->physaddr;
  if(memcmp(conf, "PCMP", 4) != 0)
    return 0;
  if(conf->version != 1 && conf->version != 4)
  102160:	3c 01                	cmp    $0x1,%al
  102162:	0f 84 c3 fe ff ff    	je     10202b <mp_init+0x9b>
  102168:	90                   	nop
  102169:	8d b4 26 00 00 00 00 	lea    0x0(%esi,%eiz,1),%esi
  102170:	e9 6c ff ff ff       	jmp    1020e1 <mp_init+0x151>
  102175:	90                   	nop
  102176:	90                   	nop
  102177:	90                   	nop
  102178:	90                   	nop
  102179:	90                   	nop
  10217a:	90                   	nop
  10217b:	90                   	nop
  10217c:	90                   	nop
  10217d:	90                   	nop
  10217e:	90                   	nop
  10217f:	90                   	nop

00102180 <fileinit>:
struct spinlock file_table_lock;
struct file file[NFILE];

void
fileinit(void)
{
  102180:	83 ec 1c             	sub    $0x1c,%esp
  initlock(&file_table_lock, "file_table");
  102183:	c7 44 24 04 8c 61 10 	movl   $0x10618c,0x4(%esp)
  10218a:	00 
  10218b:	c7 04 24 60 e8 10 00 	movl   $0x10e860,(%esp)
  102192:	e8 e9 df ff ff       	call   100180 <initlock>
}
  102197:	83 c4 1c             	add    $0x1c,%esp
  10219a:	c3                   	ret    
  10219b:	90                   	nop
  10219c:	8d 74 26 00          	lea    0x0(%esi,%eiz,1),%esi

001021a0 <filealloc>:

// Allocate a file structure.
struct file*
filealloc(void)
{
  1021a0:	53                   	push   %ebx
  1021a1:	83 ec 18             	sub    $0x18,%esp
  int i;

  acquire(&file_table_lock);
  1021a4:	c7 04 24 60 e8 10 00 	movl   $0x10e860,(%esp)
  1021ab:	e8 c0 e0 ff ff       	call   100270 <acquire>
  1021b0:	ba 60 dc 10 00       	mov    $0x10dc60,%edx
  for(i = 0; i < NFILE; i++){
  1021b5:	31 c0                	xor    %eax,%eax
  1021b7:	eb 14                	jmp    1021cd <filealloc+0x2d>
  1021b9:	8d b4 26 00 00 00 00 	lea    0x0(%esi,%eiz,1),%esi
  1021c0:	83 c0 01             	add    $0x1,%eax
  1021c3:	83 c2 18             	add    $0x18,%edx
  1021c6:	3d 80 00 00 00       	cmp    $0x80,%eax
  1021cb:	74 3b                	je     102208 <filealloc+0x68>
    if(file[i].type == FD_CLOSED){
  1021cd:	8b 0a                	mov    (%edx),%ecx
  1021cf:	85 c9                	test   %ecx,%ecx
  1021d1:	75 ed                	jne    1021c0 <filealloc+0x20>
      file[i].type = FD_NONE;
  1021d3:	8d 04 40             	lea    (%eax,%eax,2),%eax
  1021d6:	c1 e0 03             	shl    $0x3,%eax
      file[i].ref = 1;
      release(&file_table_lock);
  1021d9:	c7 04 24 60 e8 10 00 	movl   $0x10e860,(%esp)
  int i;

  acquire(&file_table_lock);
  for(i = 0; i < NFILE; i++){
    if(file[i].type == FD_CLOSED){
      file[i].type = FD_NONE;
  1021e0:	8d 98 60 dc 10 00    	lea    0x10dc60(%eax),%ebx
  1021e6:	c7 80 60 dc 10 00 01 	movl   $0x1,0x10dc60(%eax)
  1021ed:	00 00 00 
      file[i].ref = 1;
  1021f0:	c7 80 64 dc 10 00 01 	movl   $0x1,0x10dc64(%eax)
  1021f7:	00 00 00 
      release(&file_table_lock);
  1021fa:	e8 61 e1 ff ff       	call   100360 <release>
      return file + i;
    }
  }
  release(&file_table_lock);
  return 0;
}
  1021ff:	83 c4 18             	add    $0x18,%esp
  for(i = 0; i < NFILE; i++){
    if(file[i].type == FD_CLOSED){
      file[i].type = FD_NONE;
      file[i].ref = 1;
      release(&file_table_lock);
      return file + i;
  102202:	89 d8                	mov    %ebx,%eax
    }
  }
  release(&file_table_lock);
  return 0;
}
  102204:	5b                   	pop    %ebx
  102205:	c3                   	ret    
  102206:	66 90                	xchg   %ax,%ax
      file[i].ref = 1;
      release(&file_table_lock);
      return file + i;
    }
  }
  release(&file_table_lock);
  102208:	c7 04 24 60 e8 10 00 	movl   $0x10e860,(%esp)
  10220f:	e8 4c e1 ff ff       	call   100360 <release>
  return 0;
}
  102214:	83 c4 18             	add    $0x18,%esp
      release(&file_table_lock);
      return file + i;
    }
  }
  release(&file_table_lock);
  return 0;
  102217:	31 c0                	xor    %eax,%eax
}
  102219:	5b                   	pop    %ebx
  10221a:	c3                   	ret    
  10221b:	90                   	nop
  10221c:	8d 74 26 00          	lea    0x0(%esi,%eiz,1),%esi

00102220 <filedup>:

// Increment ref count for file f.
struct file*
filedup(struct file *f)
{
  102220:	53                   	push   %ebx
  102221:	83 ec 18             	sub    $0x18,%esp
  102224:	8b 5c 24 20          	mov    0x20(%esp),%ebx
  acquire(&file_table_lock);
  102228:	c7 04 24 60 e8 10 00 	movl   $0x10e860,(%esp)
  10222f:	e8 3c e0 ff ff       	call   100270 <acquire>
  if(f->ref < 1 || f->type == FD_CLOSED)
  102234:	8b 43 04             	mov    0x4(%ebx),%eax
  102237:	85 c0                	test   %eax,%eax
  102239:	7e 1f                	jle    10225a <filedup+0x3a>
  10223b:	8b 13                	mov    (%ebx),%edx
  10223d:	85 d2                	test   %edx,%edx
  10223f:	74 19                	je     10225a <filedup+0x3a>
    panic("filedup");
  f->ref++;
  102241:	83 c0 01             	add    $0x1,%eax
  102244:	89 43 04             	mov    %eax,0x4(%ebx)
  release(&file_table_lock);
  102247:	c7 04 24 60 e8 10 00 	movl   $0x10e860,(%esp)
  10224e:	e8 0d e1 ff ff       	call   100360 <release>
  return f;
}
  102253:	83 c4 18             	add    $0x18,%esp
  102256:	89 d8                	mov    %ebx,%eax
  102258:	5b                   	pop    %ebx
  102259:	c3                   	ret    
struct file*
filedup(struct file *f)
{
  acquire(&file_table_lock);
  if(f->ref < 1 || f->type == FD_CLOSED)
    panic("filedup");
  10225a:	c7 04 24 97 61 10 00 	movl   $0x106197,(%esp)
  102261:	e8 4a e8 ff ff       	call   100ab0 <panic>
  102266:	8d 76 00             	lea    0x0(%esi),%esi
  102269:	8d bc 27 00 00 00 00 	lea    0x0(%edi,%eiz,1),%edi

00102270 <fileclose>:
}

// Close file f.  (Decrement ref count, close when reaches 0.)
void
fileclose(struct file *f)
{
  102270:	83 ec 3c             	sub    $0x3c,%esp
  102273:	89 5c 24 2c          	mov    %ebx,0x2c(%esp)
  102277:	8b 5c 24 40          	mov    0x40(%esp),%ebx
  struct file ff;

  acquire(&file_table_lock);
  10227b:	c7 04 24 60 e8 10 00 	movl   $0x10e860,(%esp)
}

// Close file f.  (Decrement ref count, close when reaches 0.)
void
fileclose(struct file *f)
{
  102282:	89 74 24 30          	mov    %esi,0x30(%esp)
  102286:	89 7c 24 34          	mov    %edi,0x34(%esp)
  10228a:	89 6c 24 38          	mov    %ebp,0x38(%esp)
  struct file ff;

  acquire(&file_table_lock);
  10228e:	e8 dd df ff ff       	call   100270 <acquire>
  if(f->ref < 1 || f->type == FD_CLOSED)
  102293:	8b 43 04             	mov    0x4(%ebx),%eax
  102296:	85 c0                	test   %eax,%eax
  102298:	0f 8e a7 00 00 00    	jle    102345 <fileclose+0xd5>
  10229e:	8b 33                	mov    (%ebx),%esi
  1022a0:	85 f6                	test   %esi,%esi
  1022a2:	0f 84 9d 00 00 00    	je     102345 <fileclose+0xd5>
    panic("fileclose");
  if(--f->ref > 0){
  1022a8:	83 e8 01             	sub    $0x1,%eax
  1022ab:	85 c0                	test   %eax,%eax
  1022ad:	89 43 04             	mov    %eax,0x4(%ebx)
  1022b0:	74 26                	je     1022d8 <fileclose+0x68>
    release(&file_table_lock);
  1022b2:	c7 44 24 40 60 e8 10 	movl   $0x10e860,0x40(%esp)
  1022b9:	00 
    pipeclose(ff.pipe, ff.writable);
  else if(ff.type == FD_INODE)
    iput(ff.ip);
  else
    panic("fileclose");
}
  1022ba:	8b 5c 24 2c          	mov    0x2c(%esp),%ebx
  1022be:	8b 74 24 30          	mov    0x30(%esp),%esi
  1022c2:	8b 7c 24 34          	mov    0x34(%esp),%edi
  1022c6:	8b 6c 24 38          	mov    0x38(%esp),%ebp
  1022ca:	83 c4 3c             	add    $0x3c,%esp

  acquire(&file_table_lock);
  if(f->ref < 1 || f->type == FD_CLOSED)
    panic("fileclose");
  if(--f->ref > 0){
    release(&file_table_lock);
  1022cd:	e9 8e e0 ff ff       	jmp    100360 <release>
  1022d2:	8d b6 00 00 00 00    	lea    0x0(%esi),%esi
    return;
  }
  ff = *f;
  1022d8:	0f b6 43 09          	movzbl 0x9(%ebx),%eax
  1022dc:	8b 6b 0c             	mov    0xc(%ebx),%ebp
  1022df:	8b 7b 10             	mov    0x10(%ebx),%edi
  f->ref = 0;
  f->type = FD_CLOSED;
  1022e2:	c7 03 00 00 00 00    	movl   $0x0,(%ebx)
  release(&file_table_lock);
  1022e8:	c7 04 24 60 e8 10 00 	movl   $0x10e860,(%esp)
    panic("fileclose");
  if(--f->ref > 0){
    release(&file_table_lock);
    return;
  }
  ff = *f;
  1022ef:	88 44 24 1f          	mov    %al,0x1f(%esp)
  f->ref = 0;
  f->type = FD_CLOSED;
  release(&file_table_lock);
  1022f3:	e8 68 e0 ff ff       	call   100360 <release>

  if(ff.type == FD_PIPE)
  1022f8:	83 fe 02             	cmp    $0x2,%esi
  1022fb:	74 23                	je     102320 <fileclose+0xb0>
    pipeclose(ff.pipe, ff.writable);
  else if(ff.type == FD_INODE)
  1022fd:	83 fe 03             	cmp    $0x3,%esi
  102300:	75 43                	jne    102345 <fileclose+0xd5>
    iput(ff.ip);
  102302:	89 7c 24 40          	mov    %edi,0x40(%esp)
  else
    panic("fileclose");
}
  102306:	8b 5c 24 2c          	mov    0x2c(%esp),%ebx
  10230a:	8b 74 24 30          	mov    0x30(%esp),%esi
  10230e:	8b 7c 24 34          	mov    0x34(%esp),%edi
  102312:	8b 6c 24 38          	mov    0x38(%esp),%ebp
  102316:	83 c4 3c             	add    $0x3c,%esp
  release(&file_table_lock);

  if(ff.type == FD_PIPE)
    pipeclose(ff.pipe, ff.writable);
  else if(ff.type == FD_INODE)
    iput(ff.ip);
  102319:	e9 a2 08 00 00       	jmp    102bc0 <iput>
  10231e:	66 90                	xchg   %ax,%ax
  f->ref = 0;
  f->type = FD_CLOSED;
  release(&file_table_lock);

  if(ff.type == FD_PIPE)
    pipeclose(ff.pipe, ff.writable);
  102320:	0f be 44 24 1f       	movsbl 0x1f(%esp),%eax
  102325:	89 2c 24             	mov    %ebp,(%esp)
  102328:	89 44 24 04          	mov    %eax,0x4(%esp)
  10232c:	e8 9f 16 00 00       	call   1039d0 <pipeclose>
  else if(ff.type == FD_INODE)
    iput(ff.ip);
  else
    panic("fileclose");
}
  102331:	8b 5c 24 2c          	mov    0x2c(%esp),%ebx
  102335:	8b 74 24 30          	mov    0x30(%esp),%esi
  102339:	8b 7c 24 34          	mov    0x34(%esp),%edi
  10233d:	8b 6c 24 38          	mov    0x38(%esp),%ebp
  102341:	83 c4 3c             	add    $0x3c,%esp
  102344:	c3                   	ret    
  if(ff.type == FD_PIPE)
    pipeclose(ff.pipe, ff.writable);
  else if(ff.type == FD_INODE)
    iput(ff.ip);
  else
    panic("fileclose");
  102345:	c7 04 24 9f 61 10 00 	movl   $0x10619f,(%esp)
  10234c:	e8 5f e7 ff ff       	call   100ab0 <panic>
  102351:	eb 0d                	jmp    102360 <filestat>
  102353:	90                   	nop
  102354:	90                   	nop
  102355:	90                   	nop
  102356:	90                   	nop
  102357:	90                   	nop
  102358:	90                   	nop
  102359:	90                   	nop
  10235a:	90                   	nop
  10235b:	90                   	nop
  10235c:	90                   	nop
  10235d:	90                   	nop
  10235e:	90                   	nop
  10235f:	90                   	nop

00102360 <filestat>:
}

// Get metadata about file f.
int
filestat(struct file *f, struct stat *st)
{
  102360:	53                   	push   %ebx
    ilock(f->ip);
    stati(f->ip, st);
    iunlock(f->ip);
    return 0;
  }
  return -1;
  102361:	b8 ff ff ff ff       	mov    $0xffffffff,%eax
}

// Get metadata about file f.
int
filestat(struct file *f, struct stat *st)
{
  102366:	83 ec 18             	sub    $0x18,%esp
  102369:	8b 5c 24 20          	mov    0x20(%esp),%ebx
  if(f->type == FD_INODE){
  10236d:	83 3b 03             	cmpl   $0x3,(%ebx)
  102370:	75 2b                	jne    10239d <filestat+0x3d>
    ilock(f->ip);
  102372:	8b 43 10             	mov    0x10(%ebx),%eax
  102375:	89 04 24             	mov    %eax,(%esp)
  102378:	e8 93 05 00 00       	call   102910 <ilock>
    stati(f->ip, st);
  10237d:	8b 44 24 24          	mov    0x24(%esp),%eax
  102381:	89 44 24 04          	mov    %eax,0x4(%esp)
  102385:	8b 43 10             	mov    0x10(%ebx),%eax
  102388:	89 04 24             	mov    %eax,(%esp)
  10238b:	e8 90 09 00 00       	call   102d20 <stati>
    iunlock(f->ip);
  102390:	8b 43 10             	mov    0x10(%ebx),%eax
  102393:	89 04 24             	mov    %eax,(%esp)
  102396:	e8 75 06 00 00       	call   102a10 <iunlock>
    return 0;
  10239b:	31 c0                	xor    %eax,%eax
  }
  return -1;
}
  10239d:	83 c4 18             	add    $0x18,%esp
  1023a0:	5b                   	pop    %ebx
  1023a1:	c3                   	ret    
  1023a2:	8d b4 26 00 00 00 00 	lea    0x0(%esi,%eiz,1),%esi
  1023a9:	8d bc 27 00 00 00 00 	lea    0x0(%edi,%eiz,1),%edi

001023b0 <fileread>:

// Read from file f.  Addr is kernel address.
int
fileread(struct file *f, char *addr, int n)
{
  1023b0:	83 ec 1c             	sub    $0x1c,%esp
  1023b3:	89 5c 24 10          	mov    %ebx,0x10(%esp)
  1023b7:	8b 5c 24 20          	mov    0x20(%esp),%ebx
  1023bb:	89 74 24 14          	mov    %esi,0x14(%esp)
  1023bf:	8b 74 24 24          	mov    0x24(%esp),%esi
  1023c3:	89 7c 24 18          	mov    %edi,0x18(%esp)
  1023c7:	8b 7c 24 28          	mov    0x28(%esp),%edi
  int r;

  if(f->readable == 0)
  1023cb:	80 7b 08 00          	cmpb   $0x0,0x8(%ebx)
  1023cf:	74 77                	je     102448 <fileread+0x98>
    return -1;
  if(f->type == FD_PIPE)
  1023d1:	8b 03                	mov    (%ebx),%eax
  1023d3:	83 f8 02             	cmp    $0x2,%eax
  1023d6:	74 50                	je     102428 <fileread+0x78>
    return piperead(f->pipe, addr, n);
  if(f->type == FD_INODE){
  1023d8:	83 f8 03             	cmp    $0x3,%eax
  1023db:	75 72                	jne    10244f <fileread+0x9f>
    ilock(f->ip);
  1023dd:	8b 43 10             	mov    0x10(%ebx),%eax
  1023e0:	89 04 24             	mov    %eax,(%esp)
  1023e3:	e8 28 05 00 00       	call   102910 <ilock>
    if((r = readi(f->ip, addr, f->off, n)) > 0)
  1023e8:	89 7c 24 0c          	mov    %edi,0xc(%esp)
  1023ec:	8b 43 14             	mov    0x14(%ebx),%eax
  1023ef:	89 74 24 04          	mov    %esi,0x4(%esp)
  1023f3:	89 44 24 08          	mov    %eax,0x8(%esp)
  1023f7:	8b 43 10             	mov    0x10(%ebx),%eax
  1023fa:	89 04 24             	mov    %eax,(%esp)
  1023fd:	e8 4e 09 00 00       	call   102d50 <readi>
  102402:	85 c0                	test   %eax,%eax
  102404:	89 c6                	mov    %eax,%esi
  102406:	7e 03                	jle    10240b <fileread+0x5b>
      f->off += r;
  102408:	01 43 14             	add    %eax,0x14(%ebx)
    iunlock(f->ip);
  10240b:	8b 43 10             	mov    0x10(%ebx),%eax
  10240e:	89 04 24             	mov    %eax,(%esp)
  102411:	e8 fa 05 00 00       	call   102a10 <iunlock>
    return r;
  }
  panic("fileread");
}
  102416:	89 f0                	mov    %esi,%eax
  102418:	8b 5c 24 10          	mov    0x10(%esp),%ebx
  10241c:	8b 74 24 14          	mov    0x14(%esp),%esi
  102420:	8b 7c 24 18          	mov    0x18(%esp),%edi
  102424:	83 c4 1c             	add    $0x1c,%esp
  102427:	c3                   	ret    
  int r;

  if(f->readable == 0)
    return -1;
  if(f->type == FD_PIPE)
    return piperead(f->pipe, addr, n);
  102428:	8b 43 0c             	mov    0xc(%ebx),%eax
      f->off += r;
    iunlock(f->ip);
    return r;
  }
  panic("fileread");
}
  10242b:	8b 74 24 14          	mov    0x14(%esp),%esi
  10242f:	8b 5c 24 10          	mov    0x10(%esp),%ebx
  102433:	8b 7c 24 18          	mov    0x18(%esp),%edi
  int r;

  if(f->readable == 0)
    return -1;
  if(f->type == FD_PIPE)
    return piperead(f->pipe, addr, n);
  102437:	89 44 24 20          	mov    %eax,0x20(%esp)
      f->off += r;
    iunlock(f->ip);
    return r;
  }
  panic("fileread");
}
  10243b:	83 c4 1c             	add    $0x1c,%esp
  int r;

  if(f->readable == 0)
    return -1;
  if(f->type == FD_PIPE)
    return piperead(f->pipe, addr, n);
  10243e:	e9 3d 17 00 00       	jmp    103b80 <piperead>
  102443:	90                   	nop
  102444:	8d 74 26 00          	lea    0x0(%esi,%eiz,1),%esi
fileread(struct file *f, char *addr, int n)
{
  int r;

  if(f->readable == 0)
    return -1;
  102448:	be ff ff ff ff       	mov    $0xffffffff,%esi
  10244d:	eb c7                	jmp    102416 <fileread+0x66>
    if((r = readi(f->ip, addr, f->off, n)) > 0)
      f->off += r;
    iunlock(f->ip);
    return r;
  }
  panic("fileread");
  10244f:	c7 04 24 a9 61 10 00 	movl   $0x1061a9,(%esp)
  102456:	e8 55 e6 ff ff       	call   100ab0 <panic>
  10245b:	90                   	nop
  10245c:	8d 74 26 00          	lea    0x0(%esi,%eiz,1),%esi

00102460 <filewrite>:
}

// Write to file f.  Addr is kernel address.
int
filewrite(struct file *f, char *addr, int n)
{
  102460:	83 ec 1c             	sub    $0x1c,%esp
  102463:	89 5c 24 10          	mov    %ebx,0x10(%esp)
  102467:	8b 5c 24 20          	mov    0x20(%esp),%ebx
  10246b:	89 74 24 14          	mov    %esi,0x14(%esp)
  10246f:	8b 74 24 24          	mov    0x24(%esp),%esi
  102473:	89 7c 24 18          	mov    %edi,0x18(%esp)
  102477:	8b 7c 24 28          	mov    0x28(%esp),%edi
  int r;

  if(f->writable == 0)
  10247b:	80 7b 09 00          	cmpb   $0x0,0x9(%ebx)
  10247f:	74 77                	je     1024f8 <filewrite+0x98>
    return -1;
  if(f->type == FD_PIPE)
  102481:	8b 03                	mov    (%ebx),%eax
  102483:	83 f8 02             	cmp    $0x2,%eax
  102486:	74 50                	je     1024d8 <filewrite+0x78>
    return pipewrite(f->pipe, addr, n);
  if(f->type == FD_INODE){
  102488:	83 f8 03             	cmp    $0x3,%eax
  10248b:	75 72                	jne    1024ff <filewrite+0x9f>
    ilock(f->ip);
  10248d:	8b 43 10             	mov    0x10(%ebx),%eax
  102490:	89 04 24             	mov    %eax,(%esp)
  102493:	e8 78 04 00 00       	call   102910 <ilock>
    if((r = writei(f->ip, addr, f->off, n)) > 0)
  102498:	89 7c 24 0c          	mov    %edi,0xc(%esp)
  10249c:	8b 43 14             	mov    0x14(%ebx),%eax
  10249f:	89 74 24 04          	mov    %esi,0x4(%esp)
  1024a3:	89 44 24 08          	mov    %eax,0x8(%esp)
  1024a7:	8b 43 10             	mov    0x10(%ebx),%eax
  1024aa:	89 04 24             	mov    %eax,(%esp)
  1024ad:	e8 ae 09 00 00       	call   102e60 <writei>
  1024b2:	85 c0                	test   %eax,%eax
  1024b4:	89 c6                	mov    %eax,%esi
  1024b6:	7e 03                	jle    1024bb <filewrite+0x5b>
      f->off += r;
  1024b8:	01 43 14             	add    %eax,0x14(%ebx)
    iunlock(f->ip);
  1024bb:	8b 43 10             	mov    0x10(%ebx),%eax
  1024be:	89 04 24             	mov    %eax,(%esp)
  1024c1:	e8 4a 05 00 00       	call   102a10 <iunlock>
    return r;
  }
  panic("filewrite");
}
  1024c6:	89 f0                	mov    %esi,%eax
  1024c8:	8b 5c 24 10          	mov    0x10(%esp),%ebx
  1024cc:	8b 74 24 14          	mov    0x14(%esp),%esi
  1024d0:	8b 7c 24 18          	mov    0x18(%esp),%edi
  1024d4:	83 c4 1c             	add    $0x1c,%esp
  1024d7:	c3                   	ret    
  int r;

  if(f->writable == 0)
    return -1;
  if(f->type == FD_PIPE)
    return pipewrite(f->pipe, addr, n);
  1024d8:	8b 43 0c             	mov    0xc(%ebx),%eax
      f->off += r;
    iunlock(f->ip);
    return r;
  }
  panic("filewrite");
}
  1024db:	8b 74 24 14          	mov    0x14(%esp),%esi
  1024df:	8b 5c 24 10          	mov    0x10(%esp),%ebx
  1024e3:	8b 7c 24 18          	mov    0x18(%esp),%edi
  int r;

  if(f->writable == 0)
    return -1;
  if(f->type == FD_PIPE)
    return pipewrite(f->pipe, addr, n);
  1024e7:	89 44 24 20          	mov    %eax,0x20(%esp)
      f->off += r;
    iunlock(f->ip);
    return r;
  }
  panic("filewrite");
}
  1024eb:	83 c4 1c             	add    $0x1c,%esp
  int r;

  if(f->writable == 0)
    return -1;
  if(f->type == FD_PIPE)
    return pipewrite(f->pipe, addr, n);
  1024ee:	e9 7d 15 00 00       	jmp    103a70 <pipewrite>
  1024f3:	90                   	nop
  1024f4:	8d 74 26 00          	lea    0x0(%esi,%eiz,1),%esi
filewrite(struct file *f, char *addr, int n)
{
  int r;

  if(f->writable == 0)
    return -1;
  1024f8:	be ff ff ff ff       	mov    $0xffffffff,%esi
  1024fd:	eb c7                	jmp    1024c6 <filewrite+0x66>
    if((r = writei(f->ip, addr, f->off, n)) > 0)
      f->off += r;
    iunlock(f->ip);
    return r;
  }
  panic("filewrite");
  1024ff:	c7 04 24 b2 61 10 00 	movl   $0x1061b2,(%esp)
  102506:	e8 a5 e5 ff ff       	call   100ab0 <panic>
  10250b:	90                   	nop
  10250c:	90                   	nop
  10250d:	90                   	nop
  10250e:	90                   	nop
  10250f:	90                   	nop

00102510 <iget>:

// Find the inode with number inum on device dev
// and return the in-memory copy.
static struct inode*
iget(uint dev, uint inum)
{
  102510:	57                   	push   %edi
  102511:	89 d7                	mov    %edx,%edi
  102513:	56                   	push   %esi
  struct inode *ip, *empty;

  acquire(&icache.lock);

  // Try for cached inode.
  empty = 0;
  102514:	31 f6                	xor    %esi,%esi

// Find the inode with number inum on device dev
// and return the in-memory copy.
static struct inode*
iget(uint dev, uint inum)
{
  102516:	53                   	push   %ebx
  102517:	89 c3                	mov    %eax,%ebx
  102519:	83 ec 20             	sub    $0x20,%esp
  struct inode *ip, *empty;

  acquire(&icache.lock);
  10251c:	c7 04 24 20 e9 10 00 	movl   $0x10e920,(%esp)
  102523:	e8 48 dd ff ff       	call   100270 <acquire>

  // Try for cached inode.
  empty = 0;
  for(ip = &icache.inode[0]; ip < &icache.inode[NINODE]; ip++){
  102528:	b8 54 e9 10 00       	mov    $0x10e954,%eax
  10252d:	eb 0f                	jmp    10253e <iget+0x2e>
  10252f:	90                   	nop
    if(ip->ref > 0 && ip->dev == dev && ip->inum == inum){
      ip->ref++;
      release(&icache.lock);
      return ip;
    }
    if(empty == 0 && ip->ref == 0)    // Remember empty slot.
  102530:	85 f6                	test   %esi,%esi
  102532:	74 3c                	je     102570 <iget+0x60>

  acquire(&icache.lock);

  // Try for cached inode.
  empty = 0;
  for(ip = &icache.inode[0]; ip < &icache.inode[NINODE]; ip++){
  102534:	83 c0 50             	add    $0x50,%eax
  102537:	3d 54 fd 10 00       	cmp    $0x10fd54,%eax
  10253c:	73 42                	jae    102580 <iget+0x70>
    if(ip->ref > 0 && ip->dev == dev && ip->inum == inum){
  10253e:	8b 48 08             	mov    0x8(%eax),%ecx
  102541:	85 c9                	test   %ecx,%ecx
  102543:	7e eb                	jle    102530 <iget+0x20>
  102545:	39 18                	cmp    %ebx,(%eax)
  102547:	75 e7                	jne    102530 <iget+0x20>
  102549:	39 78 04             	cmp    %edi,0x4(%eax)
  10254c:	75 e2                	jne    102530 <iget+0x20>
      ip->ref++;
  10254e:	83 c1 01             	add    $0x1,%ecx
  102551:	89 48 08             	mov    %ecx,0x8(%eax)
      release(&icache.lock);
  102554:	c7 04 24 20 e9 10 00 	movl   $0x10e920,(%esp)
  10255b:	89 44 24 1c          	mov    %eax,0x1c(%esp)
  10255f:	e8 fc dd ff ff       	call   100360 <release>
      return ip;
  102564:	8b 44 24 1c          	mov    0x1c(%esp),%eax
  ip->ref = 1;
  ip->flags = 0;
  release(&icache.lock);

  return ip;
}
  102568:	83 c4 20             	add    $0x20,%esp
  10256b:	5b                   	pop    %ebx
  10256c:	5e                   	pop    %esi
  10256d:	5f                   	pop    %edi
  10256e:	c3                   	ret    
  10256f:	90                   	nop
    if(ip->ref > 0 && ip->dev == dev && ip->inum == inum){
      ip->ref++;
      release(&icache.lock);
      return ip;
    }
    if(empty == 0 && ip->ref == 0)    // Remember empty slot.
  102570:	85 c9                	test   %ecx,%ecx
  102572:	0f 44 f0             	cmove  %eax,%esi

  acquire(&icache.lock);

  // Try for cached inode.
  empty = 0;
  for(ip = &icache.inode[0]; ip < &icache.inode[NINODE]; ip++){
  102575:	83 c0 50             	add    $0x50,%eax
  102578:	3d 54 fd 10 00       	cmp    $0x10fd54,%eax
  10257d:	72 bf                	jb     10253e <iget+0x2e>
  10257f:	90                   	nop
    if(empty == 0 && ip->ref == 0)    // Remember empty slot.
      empty = ip;
  }

  // Allocate fresh inode.
  if(empty == 0)
  102580:	85 f6                	test   %esi,%esi
  102582:	74 28                	je     1025ac <iget+0x9c>
    panic("iget: no inodes");

  ip = empty;
  ip->dev = dev;
  102584:	89 1e                	mov    %ebx,(%esi)
  ip->inum = inum;
  102586:	89 7e 04             	mov    %edi,0x4(%esi)
  ip->ref = 1;
  102589:	c7 46 08 01 00 00 00 	movl   $0x1,0x8(%esi)
  ip->flags = 0;
  102590:	c7 46 0c 00 00 00 00 	movl   $0x0,0xc(%esi)
  release(&icache.lock);
  102597:	c7 04 24 20 e9 10 00 	movl   $0x10e920,(%esp)
  10259e:	e8 bd dd ff ff       	call   100360 <release>

  return ip;
}
  1025a3:	83 c4 20             	add    $0x20,%esp
  ip->inum = inum;
  ip->ref = 1;
  ip->flags = 0;
  release(&icache.lock);

  return ip;
  1025a6:	89 f0                	mov    %esi,%eax
}
  1025a8:	5b                   	pop    %ebx
  1025a9:	5e                   	pop    %esi
  1025aa:	5f                   	pop    %edi
  1025ab:	c3                   	ret    
      empty = ip;
  }

  // Allocate fresh inode.
  if(empty == 0)
    panic("iget: no inodes");
  1025ac:	c7 04 24 bc 61 10 00 	movl   $0x1061bc,(%esp)
  1025b3:	e8 f8 e4 ff ff       	call   100ab0 <panic>
  1025b8:	90                   	nop
  1025b9:	8d b4 26 00 00 00 00 	lea    0x0(%esi,%eiz,1),%esi

001025c0 <readsb>:
static void itrunc(struct inode*);

// Read the super block.
static void
readsb(int dev, struct superblock *sb)
{
  1025c0:	83 ec 1c             	sub    $0x1c,%esp
  struct buf *bp;

  bp = bread(dev, 1);
  1025c3:	c7 44 24 04 01 00 00 	movl   $0x1,0x4(%esp)
  1025ca:	00 
  1025cb:	89 04 24             	mov    %eax,(%esp)
static void itrunc(struct inode*);

// Read the super block.
static void
readsb(int dev, struct superblock *sb)
{
  1025ce:	89 5c 24 14          	mov    %ebx,0x14(%esp)
  1025d2:	89 74 24 18          	mov    %esi,0x18(%esp)
  1025d6:	89 d6                	mov    %edx,%esi
  struct buf *bp;

  bp = bread(dev, 1);
  1025d8:	e8 f3 0d 00 00       	call   1033d0 <bread>
  memmove(sb, bp->data, sizeof(*sb));
  1025dd:	89 34 24             	mov    %esi,(%esp)
  1025e0:	c7 44 24 08 0c 00 00 	movl   $0xc,0x8(%esp)
  1025e7:	00 
static void
readsb(int dev, struct superblock *sb)
{
  struct buf *bp;

  bp = bread(dev, 1);
  1025e8:	89 c3                	mov    %eax,%ebx
  memmove(sb, bp->data, sizeof(*sb));
  1025ea:	8d 40 18             	lea    0x18(%eax),%eax
  1025ed:	89 44 24 04          	mov    %eax,0x4(%esp)
  1025f1:	e8 aa e8 ff ff       	call   100ea0 <memmove>
  brelse(bp);
  1025f6:	89 1c 24             	mov    %ebx,(%esp)
  1025f9:	e8 e2 0e 00 00       	call   1034e0 <brelse>
}
  1025fe:	8b 5c 24 14          	mov    0x14(%esp),%ebx
  102602:	8b 74 24 18          	mov    0x18(%esp),%esi
  102606:	83 c4 1c             	add    $0x1c,%esp
  102609:	c3                   	ret    
  10260a:	8d b6 00 00 00 00    	lea    0x0(%esi),%esi

00102610 <balloc>:
// Blocks.

// Allocate a disk block.
static uint
balloc(uint dev)
{
  102610:	55                   	push   %ebp
  102611:	57                   	push   %edi
  102612:	56                   	push   %esi
  102613:	53                   	push   %ebx
  102614:	83 ec 3c             	sub    $0x3c,%esp
  int b, bi, m;
  struct buf *bp;
  struct superblock sb;

  bp = 0;
  readsb(dev, &sb);
  102617:	8d 54 24 24          	lea    0x24(%esp),%edx
// Blocks.

// Allocate a disk block.
static uint
balloc(uint dev)
{
  10261b:	89 44 24 1c          	mov    %eax,0x1c(%esp)
  int b, bi, m;
  struct buf *bp;
  struct superblock sb;

  bp = 0;
  readsb(dev, &sb);
  10261f:	e8 9c ff ff ff       	call   1025c0 <readsb>
  for(b = 0; b < sb.size; b += BPB){
  102624:	8b 44 24 24          	mov    0x24(%esp),%eax
  102628:	85 c0                	test   %eax,%eax
  10262a:	0f 84 a6 00 00 00    	je     1026d6 <balloc+0xc6>
  102630:	c7 44 24 18 00 00 00 	movl   $0x0,0x18(%esp)
  102637:	00 
    bp = bread(dev, BBLOCK(b, sb.ninodes));
    for(bi = 0; bi < BPB; bi++){
      m = 1 << (bi % 8);
  102638:	bb 01 00 00 00       	mov    $0x1,%ebx
  struct superblock sb;

  bp = 0;
  readsb(dev, &sb);
  for(b = 0; b < sb.size; b += BPB){
    bp = bread(dev, BBLOCK(b, sb.ninodes));
  10263d:	8b 44 24 2c          	mov    0x2c(%esp),%eax
    for(bi = 0; bi < BPB; bi++){
  102641:	31 f6                	xor    %esi,%esi
  struct superblock sb;

  bp = 0;
  readsb(dev, &sb);
  for(b = 0; b < sb.size; b += BPB){
    bp = bread(dev, BBLOCK(b, sb.ninodes));
  102643:	8b 54 24 18          	mov    0x18(%esp),%edx
  102647:	c1 e8 03             	shr    $0x3,%eax
  10264a:	c1 fa 0c             	sar    $0xc,%edx
  10264d:	8d 44 10 03          	lea    0x3(%eax,%edx,1),%eax
  102651:	89 44 24 04          	mov    %eax,0x4(%esp)
  102655:	8b 44 24 1c          	mov    0x1c(%esp),%eax
  102659:	89 04 24             	mov    %eax,(%esp)
  10265c:	e8 6f 0d 00 00       	call   1033d0 <bread>
  102661:	89 c7                	mov    %eax,%edi
  102663:	eb 0e                	jmp    102673 <balloc+0x63>
  102665:	8d 76 00             	lea    0x0(%esi),%esi
    for(bi = 0; bi < BPB; bi++){
  102668:	83 c6 01             	add    $0x1,%esi
  10266b:	81 fe 00 10 00 00    	cmp    $0x1000,%esi
  102671:	74 45                	je     1026b8 <balloc+0xa8>
      m = 1 << (bi % 8);
  102673:	89 f1                	mov    %esi,%ecx
  102675:	89 d8                	mov    %ebx,%eax
  102677:	83 e1 07             	and    $0x7,%ecx
  10267a:	d3 e0                	shl    %cl,%eax
  10267c:	89 c1                	mov    %eax,%ecx
      if((bp->data[bi/8] & m) == 0){  // Is block free?
  10267e:	89 f0                	mov    %esi,%eax
  102680:	c1 f8 03             	sar    $0x3,%eax
  102683:	0f b6 54 07 18       	movzbl 0x18(%edi,%eax,1),%edx
  102688:	0f b6 ea             	movzbl %dl,%ebp
  10268b:	85 cd                	test   %ecx,%ebp
  10268d:	75 d9                	jne    102668 <balloc+0x58>
        bp->data[bi/8] |= m;  // Mark block in use on disk.
  10268f:	09 d1                	or     %edx,%ecx
  102691:	88 4c 07 18          	mov    %cl,0x18(%edi,%eax,1)
        bwrite(bp);
  102695:	89 3c 24             	mov    %edi,(%esp)
  102698:	e8 13 0e 00 00       	call   1034b0 <bwrite>
        brelse(bp);
  10269d:	89 3c 24             	mov    %edi,(%esp)
  1026a0:	e8 3b 0e 00 00       	call   1034e0 <brelse>
        return b + bi;
  1026a5:	8b 44 24 18          	mov    0x18(%esp),%eax
      }
    }
    brelse(bp);
  }
  panic("balloc: out of blocks");
}
  1026a9:	83 c4 3c             	add    $0x3c,%esp
  1026ac:	5b                   	pop    %ebx
      m = 1 << (bi % 8);
      if((bp->data[bi/8] & m) == 0){  // Is block free?
        bp->data[bi/8] |= m;  // Mark block in use on disk.
        bwrite(bp);
        brelse(bp);
        return b + bi;
  1026ad:	01 f0                	add    %esi,%eax
      }
    }
    brelse(bp);
  }
  panic("balloc: out of blocks");
}
  1026af:	5e                   	pop    %esi
  1026b0:	5f                   	pop    %edi
  1026b1:	5d                   	pop    %ebp
  1026b2:	c3                   	ret    
  1026b3:	90                   	nop
  1026b4:	8d 74 26 00          	lea    0x0(%esi,%eiz,1),%esi
        bwrite(bp);
        brelse(bp);
        return b + bi;
      }
    }
    brelse(bp);
  1026b8:	89 3c 24             	mov    %edi,(%esp)
  1026bb:	e8 20 0e 00 00       	call   1034e0 <brelse>
  struct buf *bp;
  struct superblock sb;

  bp = 0;
  readsb(dev, &sb);
  for(b = 0; b < sb.size; b += BPB){
  1026c0:	81 44 24 18 00 10 00 	addl   $0x1000,0x18(%esp)
  1026c7:	00 
  1026c8:	8b 44 24 18          	mov    0x18(%esp),%eax
  1026cc:	3b 44 24 24          	cmp    0x24(%esp),%eax
  1026d0:	0f 82 67 ff ff ff    	jb     10263d <balloc+0x2d>
        return b + bi;
      }
    }
    brelse(bp);
  }
  panic("balloc: out of blocks");
  1026d6:	c7 04 24 cc 61 10 00 	movl   $0x1061cc,(%esp)
  1026dd:	e8 ce e3 ff ff       	call   100ab0 <panic>
  1026e2:	8d b4 26 00 00 00 00 	lea    0x0(%esi,%eiz,1),%esi
  1026e9:	8d bc 27 00 00 00 00 	lea    0x0(%edi,%eiz,1),%edi

001026f0 <bfree>:
}

// Free a disk block.
static void
bfree(int dev, uint b)
{
  1026f0:	57                   	push   %edi
  1026f1:	56                   	push   %esi
  1026f2:	89 c6                	mov    %eax,%esi
  1026f4:	53                   	push   %ebx
  1026f5:	89 d3                	mov    %edx,%ebx
  1026f7:	83 ec 20             	sub    $0x20,%esp
static void
bzero(int dev, int bno)
{
  struct buf *bp;

  bp = bread(dev, bno);
  1026fa:	89 54 24 04          	mov    %edx,0x4(%esp)
  1026fe:	89 04 24             	mov    %eax,(%esp)
  102701:	e8 ca 0c 00 00       	call   1033d0 <bread>
  memset(bp->data, 0, BSIZE);
  102706:	c7 44 24 08 00 02 00 	movl   $0x200,0x8(%esp)
  10270d:	00 
  10270e:	c7 44 24 04 00 00 00 	movl   $0x0,0x4(%esp)
  102715:	00 
static void
bzero(int dev, int bno)
{
  struct buf *bp;

  bp = bread(dev, bno);
  102716:	89 c7                	mov    %eax,%edi
  memset(bp->data, 0, BSIZE);
  102718:	8d 40 18             	lea    0x18(%eax),%eax
  10271b:	89 04 24             	mov    %eax,(%esp)
  10271e:	e8 ed e6 ff ff       	call   100e10 <memset>
  bwrite(bp);
  102723:	89 3c 24             	mov    %edi,(%esp)
  102726:	e8 85 0d 00 00       	call   1034b0 <bwrite>
  brelse(bp);
  10272b:	89 3c 24             	mov    %edi,(%esp)
  10272e:	e8 ad 0d 00 00       	call   1034e0 <brelse>
  struct superblock sb;
  int bi, m;

  bzero(dev, b);

  readsb(dev, &sb);
  102733:	89 f0                	mov    %esi,%eax
  102735:	8d 54 24 14          	lea    0x14(%esp),%edx
  102739:	e8 82 fe ff ff       	call   1025c0 <readsb>
  bp = bread(dev, BBLOCK(b, sb.ninodes));
  10273e:	8b 44 24 1c          	mov    0x1c(%esp),%eax
  102742:	89 da                	mov    %ebx,%edx
  102744:	c1 ea 0c             	shr    $0xc,%edx
  102747:	89 34 24             	mov    %esi,(%esp)
  bi = b % BPB;
  m = 1 << (bi % 8);
  10274a:	be 01 00 00 00       	mov    $0x1,%esi
  int bi, m;

  bzero(dev, b);

  readsb(dev, &sb);
  bp = bread(dev, BBLOCK(b, sb.ninodes));
  10274f:	c1 e8 03             	shr    $0x3,%eax
  102752:	8d 44 10 03          	lea    0x3(%eax,%edx,1),%eax
  102756:	89 44 24 04          	mov    %eax,0x4(%esp)
  10275a:	e8 71 0c 00 00       	call   1033d0 <bread>
  bi = b % BPB;
  10275f:	89 da                	mov    %ebx,%edx
  m = 1 << (bi % 8);
  102761:	89 d9                	mov    %ebx,%ecx

  bzero(dev, b);

  readsb(dev, &sb);
  bp = bread(dev, BBLOCK(b, sb.ninodes));
  bi = b % BPB;
  102763:	81 e2 ff 0f 00 00    	and    $0xfff,%edx
  m = 1 << (bi % 8);
  102769:	83 e1 07             	and    $0x7,%ecx
  if((bp->data[bi/8] & m) == 0)
  10276c:	c1 fa 03             	sar    $0x3,%edx
  bzero(dev, b);

  readsb(dev, &sb);
  bp = bread(dev, BBLOCK(b, sb.ninodes));
  bi = b % BPB;
  m = 1 << (bi % 8);
  10276f:	d3 e6                	shl    %cl,%esi
  if((bp->data[bi/8] & m) == 0)
  102771:	0f b6 4c 10 18       	movzbl 0x18(%eax,%edx,1),%ecx
  int bi, m;

  bzero(dev, b);

  readsb(dev, &sb);
  bp = bread(dev, BBLOCK(b, sb.ninodes));
  102776:	89 c7                	mov    %eax,%edi
  bi = b % BPB;
  m = 1 << (bi % 8);
  if((bp->data[bi/8] & m) == 0)
  102778:	0f b6 c1             	movzbl %cl,%eax
  10277b:	85 f0                	test   %esi,%eax
  10277d:	74 21                	je     1027a0 <bfree+0xb0>
    panic("freeing free block");
  bp->data[bi/8] &= ~m;  // Mark block free on disk.
  10277f:	89 f0                	mov    %esi,%eax
  102781:	f7 d0                	not    %eax
  102783:	21 c8                	and    %ecx,%eax
  102785:	88 44 17 18          	mov    %al,0x18(%edi,%edx,1)
  bwrite(bp);
  102789:	89 3c 24             	mov    %edi,(%esp)
  10278c:	e8 1f 0d 00 00       	call   1034b0 <bwrite>
  brelse(bp);
  102791:	89 3c 24             	mov    %edi,(%esp)
  102794:	e8 47 0d 00 00       	call   1034e0 <brelse>
}
  102799:	83 c4 20             	add    $0x20,%esp
  10279c:	5b                   	pop    %ebx
  10279d:	5e                   	pop    %esi
  10279e:	5f                   	pop    %edi
  10279f:	c3                   	ret    
  readsb(dev, &sb);
  bp = bread(dev, BBLOCK(b, sb.ninodes));
  bi = b % BPB;
  m = 1 << (bi % 8);
  if((bp->data[bi/8] & m) == 0)
    panic("freeing free block");
  1027a0:	c7 04 24 e2 61 10 00 	movl   $0x1061e2,(%esp)
  1027a7:	e8 04 e3 ff ff       	call   100ab0 <panic>
  1027ac:	8d 74 26 00          	lea    0x0(%esi,%eiz,1),%esi

001027b0 <bmap>:

// Return the disk block address of the nth block in inode ip.
// If there is no such block, alloc controls whether one is allocated.
static uint
bmap(struct inode *ip, uint bn, int alloc)
{
  1027b0:	83 ec 2c             	sub    $0x2c,%esp
  uint addr, *a;
  struct buf *bp;

  if(bn < NDIRECT){
  1027b3:	83 fa 0b             	cmp    $0xb,%edx

// Return the disk block address of the nth block in inode ip.
// If there is no such block, alloc controls whether one is allocated.
static uint
bmap(struct inode *ip, uint bn, int alloc)
{
  1027b6:	89 5c 24 20          	mov    %ebx,0x20(%esp)
  1027ba:	89 c3                	mov    %eax,%ebx
  1027bc:	89 74 24 24          	mov    %esi,0x24(%esp)
  1027c0:	89 7c 24 28          	mov    %edi,0x28(%esp)
  uint addr, *a;
  struct buf *bp;

  if(bn < NDIRECT){
  1027c4:	77 2a                	ja     1027f0 <bmap+0x40>
    if((addr = ip->addrs[bn]) == 0){
  1027c6:	8d 72 04             	lea    0x4(%edx),%esi
  1027c9:	8b 44 b0 0c          	mov    0xc(%eax,%esi,4),%eax
  1027cd:	85 c0                	test   %eax,%eax
  1027cf:	75 0d                	jne    1027de <bmap+0x2e>
      if(!alloc)
  1027d1:	85 c9                	test   %ecx,%ecx
        return -1;
  1027d3:	b8 ff ff ff ff       	mov    $0xffffffff,%eax
  uint addr, *a;
  struct buf *bp;

  if(bn < NDIRECT){
    if((addr = ip->addrs[bn]) == 0){
      if(!alloc)
  1027d8:	0f 85 8a 00 00 00    	jne    102868 <bmap+0xb8>
    brelse(bp);
    return addr;
  }

  panic("bmap: out of range");
}
  1027de:	8b 5c 24 20          	mov    0x20(%esp),%ebx
  1027e2:	8b 74 24 24          	mov    0x24(%esp),%esi
  1027e6:	8b 7c 24 28          	mov    0x28(%esp),%edi
  1027ea:	83 c4 2c             	add    $0x2c,%esp
  1027ed:	c3                   	ret    
  1027ee:	66 90                	xchg   %ax,%ax
        return -1;
      ip->addrs[bn] = addr = balloc(ip->dev);
    }
    return addr;
  }
  bn -= NDIRECT;
  1027f0:	8d 72 f4             	lea    -0xc(%edx),%esi

  if(bn < NINDIRECT){
  1027f3:	83 fe 7f             	cmp    $0x7f,%esi
  1027f6:	0f 87 aa 00 00 00    	ja     1028a6 <bmap+0xf6>
    // Load indirect block, allocating if necessary.
    if((addr = ip->addrs[INDIRECT]) == 0){
  1027fc:	8b 40 4c             	mov    0x4c(%eax),%eax
  1027ff:	85 c0                	test   %eax,%eax
  102801:	75 1b                	jne    10281e <bmap+0x6e>
      if(!alloc)
  102803:	85 c9                	test   %ecx,%ecx
        return -1;
  102805:	b8 ff ff ff ff       	mov    $0xffffffff,%eax
  bn -= NDIRECT;

  if(bn < NINDIRECT){
    // Load indirect block, allocating if necessary.
    if((addr = ip->addrs[INDIRECT]) == 0){
      if(!alloc)
  10280a:	74 d2                	je     1027de <bmap+0x2e>
        return -1;
      ip->addrs[INDIRECT] = addr = balloc(ip->dev);
  10280c:	8b 03                	mov    (%ebx),%eax
  10280e:	89 4c 24 1c          	mov    %ecx,0x1c(%esp)
  102812:	e8 f9 fd ff ff       	call   102610 <balloc>
  102817:	8b 4c 24 1c          	mov    0x1c(%esp),%ecx
  10281b:	89 43 4c             	mov    %eax,0x4c(%ebx)
    }
    bp = bread(ip->dev, addr);
  10281e:	89 44 24 04          	mov    %eax,0x4(%esp)
  102822:	8b 03                	mov    (%ebx),%eax
  102824:	89 4c 24 1c          	mov    %ecx,0x1c(%esp)
  102828:	89 04 24             	mov    %eax,(%esp)
  10282b:	e8 a0 0b 00 00       	call   1033d0 <bread>
    a = (uint*)bp->data;

    if((addr = a[bn]) == 0){
  102830:	8b 4c 24 1c          	mov    0x1c(%esp),%ecx
  102834:	8d 74 b0 18          	lea    0x18(%eax,%esi,4),%esi
    if((addr = ip->addrs[INDIRECT]) == 0){
      if(!alloc)
        return -1;
      ip->addrs[INDIRECT] = addr = balloc(ip->dev);
    }
    bp = bread(ip->dev, addr);
  102838:	89 c7                	mov    %eax,%edi
    a = (uint*)bp->data;

    if((addr = a[bn]) == 0){
  10283a:	8b 06                	mov    (%esi),%eax
  10283c:	85 c0                	test   %eax,%eax
  10283e:	75 51                	jne    102891 <bmap+0xe1>
      if(!alloc){
  102840:	85 c9                	test   %ecx,%ecx
  102842:	75 34                	jne    102878 <bmap+0xc8>
        brelse(bp);
  102844:	89 3c 24             	mov    %edi,(%esp)
  102847:	e8 94 0c 00 00       	call   1034e0 <brelse>
        return -1;
  10284c:	b8 ff ff ff ff       	mov    $0xffffffff,%eax
    brelse(bp);
    return addr;
  }

  panic("bmap: out of range");
}
  102851:	8b 5c 24 20          	mov    0x20(%esp),%ebx
  102855:	8b 74 24 24          	mov    0x24(%esp),%esi
  102859:	8b 7c 24 28          	mov    0x28(%esp),%edi
  10285d:	83 c4 2c             	add    $0x2c,%esp
  102860:	c3                   	ret    
  102861:	8d b4 26 00 00 00 00 	lea    0x0(%esi,%eiz,1),%esi

  if(bn < NDIRECT){
    if((addr = ip->addrs[bn]) == 0){
      if(!alloc)
        return -1;
      ip->addrs[bn] = addr = balloc(ip->dev);
  102868:	8b 03                	mov    (%ebx),%eax
  10286a:	e8 a1 fd ff ff       	call   102610 <balloc>
  10286f:	89 44 b3 0c          	mov    %eax,0xc(%ebx,%esi,4)
  102873:	e9 66 ff ff ff       	jmp    1027de <bmap+0x2e>
    if((addr = a[bn]) == 0){
      if(!alloc){
        brelse(bp);
        return -1;
      }
      a[bn] = addr = balloc(ip->dev);
  102878:	8b 03                	mov    (%ebx),%eax
  10287a:	e8 91 fd ff ff       	call   102610 <balloc>
  10287f:	89 06                	mov    %eax,(%esi)
      bwrite(bp);
  102881:	89 3c 24             	mov    %edi,(%esp)
  102884:	89 44 24 1c          	mov    %eax,0x1c(%esp)
  102888:	e8 23 0c 00 00       	call   1034b0 <bwrite>
  10288d:	8b 44 24 1c          	mov    0x1c(%esp),%eax
    }
    brelse(bp);
  102891:	89 3c 24             	mov    %edi,(%esp)
  102894:	89 44 24 1c          	mov    %eax,0x1c(%esp)
  102898:	e8 43 0c 00 00       	call   1034e0 <brelse>
  10289d:	8b 44 24 1c          	mov    0x1c(%esp),%eax
  1028a1:	e9 38 ff ff ff       	jmp    1027de <bmap+0x2e>
    return addr;
  }

  panic("bmap: out of range");
  1028a6:	c7 04 24 f5 61 10 00 	movl   $0x1061f5,(%esp)
  1028ad:	e8 fe e1 ff ff       	call   100ab0 <panic>
  1028b2:	8d b4 26 00 00 00 00 	lea    0x0(%esi,%eiz,1),%esi
  1028b9:	8d bc 27 00 00 00 00 	lea    0x0(%edi,%eiz,1),%edi

001028c0 <iinit>:
  struct inode inode[NINODE];
} icache;

void
iinit(void)
{
  1028c0:	83 ec 1c             	sub    $0x1c,%esp
  initlock(&icache.lock, "icache.lock");
  1028c3:	c7 44 24 04 08 62 10 	movl   $0x106208,0x4(%esp)
  1028ca:	00 
  1028cb:	c7 04 24 20 e9 10 00 	movl   $0x10e920,(%esp)
  1028d2:	e8 a9 d8 ff ff       	call   100180 <initlock>
}
  1028d7:	83 c4 1c             	add    $0x1c,%esp
  1028da:	c3                   	ret    
  1028db:	90                   	nop
  1028dc:	8d 74 26 00          	lea    0x0(%esi,%eiz,1),%esi

001028e0 <idup>:

// Increment reference count for ip.
// Returns ip to enable ip = idup(ip1) idiom.
struct inode*
idup(struct inode *ip)
{
  1028e0:	53                   	push   %ebx
  1028e1:	83 ec 18             	sub    $0x18,%esp
  1028e4:	8b 5c 24 20          	mov    0x20(%esp),%ebx
  acquire(&icache.lock);
  1028e8:	c7 04 24 20 e9 10 00 	movl   $0x10e920,(%esp)
  1028ef:	e8 7c d9 ff ff       	call   100270 <acquire>
  ip->ref++;
  1028f4:	83 43 08 01          	addl   $0x1,0x8(%ebx)
  release(&icache.lock);
  1028f8:	c7 04 24 20 e9 10 00 	movl   $0x10e920,(%esp)
  1028ff:	e8 5c da ff ff       	call   100360 <release>
  return ip;
}
  102904:	83 c4 18             	add    $0x18,%esp
  102907:	89 d8                	mov    %ebx,%eax
  102909:	5b                   	pop    %ebx
  10290a:	c3                   	ret    
  10290b:	90                   	nop
  10290c:	8d 74 26 00          	lea    0x0(%esi,%eiz,1),%esi

00102910 <ilock>:

// Lock the given inode.
void
ilock(struct inode *ip)
{
  102910:	56                   	push   %esi
  102911:	53                   	push   %ebx
  102912:	83 ec 14             	sub    $0x14,%esp
  102915:	8b 5c 24 20          	mov    0x20(%esp),%ebx
  struct buf *bp;
  struct dinode *dip;

  if(ip == 0 || ip->ref < 1)
  102919:	85 db                	test   %ebx,%ebx
  10291b:	0f 84 df 00 00 00    	je     102a00 <ilock+0xf0>
  102921:	8b 53 08             	mov    0x8(%ebx),%edx
  102924:	85 d2                	test   %edx,%edx
  102926:	0f 8e d4 00 00 00    	jle    102a00 <ilock+0xf0>
    panic("ilock");

  acquire(&icache.lock);
  10292c:	c7 04 24 20 e9 10 00 	movl   $0x10e920,(%esp)
  102933:	e8 38 d9 ff ff       	call   100270 <acquire>
  while(ip->flags & I_BUSY)
  102938:	8b 43 0c             	mov    0xc(%ebx),%eax
  10293b:	a8 01                	test   $0x1,%al
  10293d:	74 18                	je     102957 <ilock+0x47>
  10293f:	90                   	nop
    sleep(ip, &icache.lock);
  102940:	c7 44 24 04 20 e9 10 	movl   $0x10e920,0x4(%esp)
  102947:	00 
  102948:	89 1c 24             	mov    %ebx,(%esp)
  10294b:	e8 e0 ed ff ff       	call   101730 <sleep>

  if(ip == 0 || ip->ref < 1)
    panic("ilock");

  acquire(&icache.lock);
  while(ip->flags & I_BUSY)
  102950:	8b 43 0c             	mov    0xc(%ebx),%eax
  102953:	a8 01                	test   $0x1,%al
  102955:	75 e9                	jne    102940 <ilock+0x30>
    sleep(ip, &icache.lock);
  ip->flags |= I_BUSY;
  102957:	83 c8 01             	or     $0x1,%eax
  10295a:	89 43 0c             	mov    %eax,0xc(%ebx)
  release(&icache.lock);
  10295d:	c7 04 24 20 e9 10 00 	movl   $0x10e920,(%esp)
  102964:	e8 f7 d9 ff ff       	call   100360 <release>

  if(!(ip->flags & I_VALID)){
  102969:	f6 43 0c 02          	testb  $0x2,0xc(%ebx)
  10296d:	74 09                	je     102978 <ilock+0x68>
    brelse(bp);
    ip->flags |= I_VALID;
    if(ip->type == 0)
      panic("ilock: no type");
  }
}
  10296f:	83 c4 14             	add    $0x14,%esp
  102972:	5b                   	pop    %ebx
  102973:	5e                   	pop    %esi
  102974:	c3                   	ret    
  102975:	8d 76 00             	lea    0x0(%esi),%esi
    sleep(ip, &icache.lock);
  ip->flags |= I_BUSY;
  release(&icache.lock);

  if(!(ip->flags & I_VALID)){
    bp = bread(ip->dev, IBLOCK(ip->inum));
  102978:	8b 43 04             	mov    0x4(%ebx),%eax
  10297b:	c1 e8 03             	shr    $0x3,%eax
  10297e:	83 c0 02             	add    $0x2,%eax
  102981:	89 44 24 04          	mov    %eax,0x4(%esp)
  102985:	8b 03                	mov    (%ebx),%eax
  102987:	89 04 24             	mov    %eax,(%esp)
  10298a:	e8 41 0a 00 00       	call   1033d0 <bread>
  10298f:	89 c6                	mov    %eax,%esi
    dip = (struct dinode*)bp->data + ip->inum%IPB;
  102991:	8b 43 04             	mov    0x4(%ebx),%eax
  102994:	83 e0 07             	and    $0x7,%eax
  102997:	c1 e0 06             	shl    $0x6,%eax
  10299a:	8d 44 06 18          	lea    0x18(%esi,%eax,1),%eax
    ip->type = dip->type;
  10299e:	0f b7 10             	movzwl (%eax),%edx
  1029a1:	66 89 53 10          	mov    %dx,0x10(%ebx)
    ip->major = dip->major;
  1029a5:	0f b7 50 02          	movzwl 0x2(%eax),%edx
  1029a9:	66 89 53 12          	mov    %dx,0x12(%ebx)
    ip->minor = dip->minor;
  1029ad:	0f b7 50 04          	movzwl 0x4(%eax),%edx
  1029b1:	66 89 53 14          	mov    %dx,0x14(%ebx)
    ip->nlink = dip->nlink;
  1029b5:	0f b7 50 06          	movzwl 0x6(%eax),%edx
  1029b9:	66 89 53 16          	mov    %dx,0x16(%ebx)
    ip->size = dip->size;
  1029bd:	8b 50 08             	mov    0x8(%eax),%edx
    memmove(ip->addrs, dip->addrs, sizeof(ip->addrs));
  1029c0:	83 c0 0c             	add    $0xc,%eax
    dip = (struct dinode*)bp->data + ip->inum%IPB;
    ip->type = dip->type;
    ip->major = dip->major;
    ip->minor = dip->minor;
    ip->nlink = dip->nlink;
    ip->size = dip->size;
  1029c3:	89 53 18             	mov    %edx,0x18(%ebx)
    memmove(ip->addrs, dip->addrs, sizeof(ip->addrs));
  1029c6:	89 44 24 04          	mov    %eax,0x4(%esp)
  1029ca:	8d 43 1c             	lea    0x1c(%ebx),%eax
  1029cd:	c7 44 24 08 34 00 00 	movl   $0x34,0x8(%esp)
  1029d4:	00 
  1029d5:	89 04 24             	mov    %eax,(%esp)
  1029d8:	e8 c3 e4 ff ff       	call   100ea0 <memmove>
    brelse(bp);
  1029dd:	89 34 24             	mov    %esi,(%esp)
  1029e0:	e8 fb 0a 00 00       	call   1034e0 <brelse>
    ip->flags |= I_VALID;
  1029e5:	83 4b 0c 02          	orl    $0x2,0xc(%ebx)
    if(ip->type == 0)
  1029e9:	66 83 7b 10 00       	cmpw   $0x0,0x10(%ebx)
  1029ee:	0f 85 7b ff ff ff    	jne    10296f <ilock+0x5f>
      panic("ilock: no type");
  1029f4:	c7 04 24 1a 62 10 00 	movl   $0x10621a,(%esp)
  1029fb:	e8 b0 e0 ff ff       	call   100ab0 <panic>
{
  struct buf *bp;
  struct dinode *dip;

  if(ip == 0 || ip->ref < 1)
    panic("ilock");
  102a00:	c7 04 24 14 62 10 00 	movl   $0x106214,(%esp)
  102a07:	e8 a4 e0 ff ff       	call   100ab0 <panic>
  102a0c:	8d 74 26 00          	lea    0x0(%esi,%eiz,1),%esi

00102a10 <iunlock>:
}

// Unlock the given inode.
void
iunlock(struct inode *ip)
{
  102a10:	53                   	push   %ebx
  102a11:	83 ec 18             	sub    $0x18,%esp
  102a14:	8b 5c 24 20          	mov    0x20(%esp),%ebx
  if(ip == 0 || !(ip->flags & I_BUSY) || ip->ref < 1)
  102a18:	85 db                	test   %ebx,%ebx
  102a1a:	74 36                	je     102a52 <iunlock+0x42>
  102a1c:	f6 43 0c 01          	testb  $0x1,0xc(%ebx)
  102a20:	74 30                	je     102a52 <iunlock+0x42>
  102a22:	8b 4b 08             	mov    0x8(%ebx),%ecx
  102a25:	85 c9                	test   %ecx,%ecx
  102a27:	7e 29                	jle    102a52 <iunlock+0x42>
    panic("iunlock");

  acquire(&icache.lock);
  102a29:	c7 04 24 20 e9 10 00 	movl   $0x10e920,(%esp)
  102a30:	e8 3b d8 ff ff       	call   100270 <acquire>
  ip->flags &= ~I_BUSY;
  102a35:	83 63 0c fe          	andl   $0xfffffffe,0xc(%ebx)
  wakeup(ip);
  102a39:	89 1c 24             	mov    %ebx,(%esp)
  102a3c:	e8 bf ed ff ff       	call   101800 <wakeup>
  release(&icache.lock);
  102a41:	c7 44 24 20 20 e9 10 	movl   $0x10e920,0x20(%esp)
  102a48:	00 
}
  102a49:	83 c4 18             	add    $0x18,%esp
  102a4c:	5b                   	pop    %ebx
    panic("iunlock");

  acquire(&icache.lock);
  ip->flags &= ~I_BUSY;
  wakeup(ip);
  release(&icache.lock);
  102a4d:	e9 0e d9 ff ff       	jmp    100360 <release>
// Unlock the given inode.
void
iunlock(struct inode *ip)
{
  if(ip == 0 || !(ip->flags & I_BUSY) || ip->ref < 1)
    panic("iunlock");
  102a52:	c7 04 24 29 62 10 00 	movl   $0x106229,(%esp)
  102a59:	e8 52 e0 ff ff       	call   100ab0 <panic>
  102a5e:	66 90                	xchg   %ax,%ax

00102a60 <ialloc>:
}

// Allocate a new inode with the given type on device dev.
struct inode*
ialloc(uint dev, short type)
{
  102a60:	55                   	push   %ebp
  102a61:	57                   	push   %edi
  102a62:	56                   	push   %esi
  102a63:	53                   	push   %ebx
  102a64:	83 ec 3c             	sub    $0x3c,%esp
  102a67:	0f b7 44 24 54       	movzwl 0x54(%esp),%eax
  int inum;
  struct buf *bp;
  struct dinode *dip;
  struct superblock sb;

  readsb(dev, &sb);
  102a6c:	8d 54 24 24          	lea    0x24(%esp),%edx
}

// Allocate a new inode with the given type on device dev.
struct inode*
ialloc(uint dev, short type)
{
  102a70:	8b 5c 24 50          	mov    0x50(%esp),%ebx
